BL51 BANKED LINKER/LOCATER V6.22                                                        08/31/2022  18:11:48  PAGE 1


BL51 BANKED LINKER/LOCATER V6.22, INVOKED BY:
D:\KEIL5\C51\BIN\BL51.EXE .\Objects\inputs.obj, .\Objects\interrupt_s.obj, .\Objects\mcu.obj, .\Objects\outputs.obj, .\O
>> bjects\gesture.obj, .\Objects\display.obj, .\Objects\main.obj, .\Objects\system.obj, .\Objects\app_timer.obj, .\Objec
>> ts\buzzer.obj, .\Objects\key_v2.3.obj, .\Objects\key_v2.3_lib.obj, .\Objects\misc.obj, .\Objects\tm1640.obj, .\Object
>> s\uart.obj, .\Objects\protocol.obj, .\Objects\handgesture.obj, .\Objects\tm16xx.obj, .\Objects\eeprom.obj, .\Objects\
>> sino_tk_isr.obj, ..\src\sino_touchkey\Lib_Src\TouchKey_JHB_Large_V5.2.LIB TO .\Objects\GY_MB_MN_K2205 PRINT (.\Listin
>> gs\GY_MB_MN_K2205.m51) RAMSIZE (256) DISABLEWARNING (16) CODE (0X0000-0X7FFF) XDATA (0X0000-0X04FF)


MEMORY MODEL: LARGE


INPUT MODULES INCLUDED:
  .\Objects\inputs.obj (INPUTS)
  .\Objects\interrupt_s.obj (INTERRUPT_S)
  .\Objects\mcu.obj (MCU)
  .\Objects\outputs.obj (OUTPUTS)
  .\Objects\gesture.obj (GESTURE)
  .\Objects\display.obj (DISPLAY)
  .\Objects\main.obj (MAIN)
  .\Objects\system.obj (SYSTEM)
  .\Objects\app_timer.obj (APP_TIMER)
  .\Objects\buzzer.obj (BUZZER)
  .\Objects\key_v2.3.obj (KEY_V2_3)
  .\Objects\key_v2.3_lib.obj (KEY_V2_3_LIB)
  .\Objects\misc.obj (MISC)
  .\Objects\tm1640.obj (TM1640)
  .\Objects\uart.obj (UART)
  .\Objects\protocol.obj (PROTOCOL)
  .\Objects\handgesture.obj (HANDGESTURE)
  .\Objects\tm16xx.obj (TM16XX)
  .\Objects\eeprom.obj (EEPROM)
  .\Objects\sino_tk_isr.obj (SINO_TK_ISR)
  ..\src\sino_touchkey\Lib_Src\TouchKey_JHB_Large_V5.2.LIB (SINO_TOUCHKEY)
  D:\KEIL5\C51\LIB\C51L.LIB (?C_STARTUP)
  D:\KEIL5\C51\LIB\C51L.LIB (?C?COPY)
  D:\KEIL5\C51\LIB\C51L.LIB (?C?CLDPTR)
  D:\KEIL5\C51\LIB\C51L.LIB (?C?CLDIPTR)
  D:\KEIL5\C51\LIB\C51L.LIB (?C?CLDOPTR)
  D:\KEIL5\C51\LIB\C51L.LIB (?C?CILDPTR)
  D:\KEIL5\C51\LIB\C51L.LIB (?C?CILDOPTR)
  D:\KEIL5\C51\LIB\C51L.LIB (?C?CSTPTR)
  D:\KEIL5\C51\LIB\C51L.LIB (?C?CSTOPTR)
  D:\KEIL5\C51\LIB\C51L.LIB (?C?IMUL)
  D:\KEIL5\C51\LIB\C51L.LIB (?C?UIDIV)
  D:\KEIL5\C51\LIB\C51L.LIB (?C?IILDX)
  D:\KEIL5\C51\LIB\C51L.LIB (?C?ILDIX)
  D:\KEIL5\C51\LIB\C51L.LIB (?C?ILDPTR)
  D:\KEIL5\C51\LIB\C51L.LIB (?C?ILDOPTR)
  D:\KEIL5\C51\LIB\C51L.LIB (?C?IILDPTR)
  D:\KEIL5\C51\LIB\C51L.LIB (?C?IILDOPTR)
  D:\KEIL5\C51\LIB\C51L.LIB (?C?ISTPTR)
  D:\KEIL5\C51\LIB\C51L.LIB (?C?ISTOPTR)
  D:\KEIL5\C51\LIB\C51L.LIB (?C?ULDIV)
  D:\KEIL5\C51\LIB\C51L.LIB (?C?LNOT)
  D:\KEIL5\C51\LIB\C51L.LIB (?C?ULCMP)
  D:\KEIL5\C51\LIB\C51L.LIB (?C?ULSHR)
  D:\KEIL5\C51\LIB\C51L.LIB (?C?LSHL)
BL51 BANKED LINKER/LOCATER V6.22                                                      08/31/2022  18:11:48  PAGE 2


  D:\KEIL5\C51\LIB\C51L.LIB (?C?LSTXDATA)
  D:\KEIL5\C51\LIB\C51L.LIB (?C?LSTKXDATA)
  D:\KEIL5\C51\LIB\C51L.LIB (?C?OFFXADD)
  D:\KEIL5\C51\LIB\C51L.LIB (?C?ICASE)
  D:\KEIL5\C51\LIB\C51L.LIB (ABS)
  D:\KEIL5\C51\LIB\C51L.LIB (?C_INIT)


LINK MAP OF MODULE:  .\Objects\GY_MB_MN_K2205 (INPUTS)


            TYPE    BASE      LENGTH    RELOCATION   SEGMENT NAME
            -----------------------------------------------------

            * * * * * * *   D A T A   M E M O R Y   * * * * * * *
            REG     0000H     0008H     ABSOLUTE     "REG BANK 0"
            DATA    0008H     0002H     UNIT         ?DT?SINO_TK_ISR
            IDATA   000AH     0010H     UNIT         ?ID?APP_TIMER
            IDATA   001AH     0004H     UNIT         ?ID?KEY_V2_3
            IDATA   001EH     0002H     UNIT         ?ID?DISPLAY
            BIT     0020H.0   0002H.0   UNIT         ?BI?SINO_TK_ISR
            BIT     0022H.0   0000H.4   UNIT         ?BI?APP_TIMER
            BIT     0022H.4   0000H.2   UNIT         ?BI?_GET_PIN_STATE2?MISC
            BIT     0022H.6   0000H.2   UNIT         _BIT_GROUP_
            BIT     0023H.0   0000H.1   UNIT         ?BI?INTERRUPT_S
                    0023H.1   0000H.7                *** GAP ***
            IDATA   0024H     0001H     UNIT         ?STACK

            * * * * * * *  X D A T A   M E M O R Y  * * * * * * *
            XDATA   0000H     01FCH     UNIT         ?XD?SINO_TK_ISR
            XDATA   01FCH     0039H     UNIT         ?XD?HANDGESTURE
            XDATA   0235H     0036H     UNIT         ?XD?PROTOCOL
            XDATA   026BH     0035H     UNIT         ?XD?SYSTEM
            XDATA   02A0H     001CH     UNIT         _XDATA_GROUP_
            XDATA   02BCH     0014H     UNIT         ?XD?TM16XX
            XDATA   02D0H     0012H     UNIT         ?XD?TM1640
            XDATA   02E2H     000BH     UNIT         ?XD?_SIMPLE_ITOA?MISC
            XDATA   02EDH     0009H     UNIT         ?XD?BUZZER
            XDATA   02F6H     0008H     UNIT         ?XD?_BUBBLE_SORT?MISC
            XDATA   02FEH     0006H     UNIT         ?XD?GESTURE
            XDATA   0304H     0006H     UNIT         ?XD?EEPROM
            XDATA   030AH     0005H     UNIT         ?XD?_VERIFY_CHECK_SUM?MISC
            XDATA   030FH     0004H     UNIT         ?XD?INTERRUPT_S
            XDATA   0313H     0004H     UNIT         ?XD?KEY_V2_3_LIB
            XDATA   0317H     0003H     UNIT         ?XD?MAIN
            XDATA   031AH     0003H     UNIT         ?XD?APP_TIMER
            XDATA   031DH     0002H     UNIT         ?XD?KEY_V2_3
            XDATA   031FH     0002H     UNIT         ?XD?_READ_U16_INT51?MISC

            * * * * * * *   C O D E   M E M O R Y   * * * * * * *
            CODE    0000H     0003H     ABSOLUTE     
            CODE    0003H     0008H     UNIT         ?PR?DISPLAY_ALL?DISPLAY
            CODE    000BH     0003H     ABSOLUTE     
            CODE    000EH     000DH     UNIT         ?PR?GESTURE_PWM_OFF?GESTURE
            CODE    001BH     0003H     ABSOLUTE     
            CODE    001EH     000DH     UNIT         ?PR?GESTURE_PWM_ON?GESTURE
            CODE    002BH     0003H     ABSOLUTE     
BL51 BANKED LINKER/LOCATER V6.22                                                      08/31/2022  18:11:48  PAGE 3


            CODE    002EH     001DH     UNIT         ?PR?UPDATE_ALL_INPUTS?INPUTS
            CODE    004BH     0003H     ABSOLUTE     
            CODE    004EH     0033H     UNIT         ?PR?TIMER3_INT?INTERRUPT_S
            CODE    0081H     0001H     UNIT         ?PR?DIS_DIGITAL_SCREEN?DISPLAY
            CODE    0082H     0001H     UNIT         ?PR?DIS_LEVEL_LIGHT?DISPLAY
            CODE    0083H     0003H     ABSOLUTE     
            CODE    0086H     18BBH     UNIT         ?PR?KEY_JUDGE?SINO_TOUCHKEY
            CODE    1941H     0538H     UNIT         ?C?LIB_CODE
            CODE    1E79H     035AH     UNIT         ?PR?SETTING_TASK_FUNCTION?SYSTEM
            CODE    21D3H     0300H     UNIT         ?CO?MISC
            CODE    24D3H     0291H     UNIT         ?PR?GETINITIALTOUCHKEYDATA?SINO_TOUCHKEY
            CODE    2764H     0283H     UNIT         ?PR?FCT_TEST_TASK?MAIN
            CODE    29E7H     0283H     UNIT         ?PR?POWER_OFF_TASK_FUNCTION?SYSTEM
            CODE    2C6AH     0245H     UNIT         ?PR?_TM16XX_SHOW_STALL?TM16XX
            CODE    2EAFH     021BH     UNIT         ?PR?UPDATE_HAND_GESTURE?HANDGESTURE
            CODE    30CAH     016EH     UNIT         ?PR?SEND_PANEL_COMM?PROTOCOL
            CODE    3238H     016EH     UNIT         ?PR?TK_PARA_INIT?SINO_TK_ISR
            CODE    33A6H     0131H     UNIT         ?PR?HAND_SCAN?HANDGESTURE
            CODE    34D7H     0112H     UNIT         ?PR?_ENIO?SINO_TK_ISR
            CODE    35E9H     0109H     UNIT         ?PR?_ENTK?SINO_TK_ISR
            CODE    36F2H     0106H     UNIT         ?PR?_KEY_BOARD_SCAN?KEY_V2_3_LIB
            CODE    37F8H     0104H     UNIT         ?PR?TOUCHKEY_SAMP_FRE_SET?SINO_TOUCHKEY
            CODE    38FCH     00FFH     UNIT         ?PR?_TM16XX_SHOW_NUM?TM16XX
            CODE    39FBH     00F8H     UNIT         ?PR?_BUBBLE_SORT?MISC
            CODE    3AF3H     00EDH     UNIT         ?PR?TOUCHKEYINIT?SINO_TOUCHKEY
            CODE    3BE0H     00E3H     UNIT         ?PR?_UART_RECV_BYTE_ISR?UART
            CODE    3CC3H     00E3H     UNIT         ?PR?_PROCESS_PACKET?PROTOCOL
            CODE    3DA6H     00E0H     UNIT         ?CO?SINO_TK_ISR
            CODE    3E86H     00CEH     UNIT         ?PR?ISR_TK?SINO_TK_ISR
            CODE    3F54H     00C9H     UNIT         ?PR?_HAND_GESTURE_SCAN?HANDGESTURE
            CODE    401DH     00C6H     UNIT         ?PR?MUSIC_BUZZ_CTRL?BUZZER
            CODE    40E3H     00BDH     UNIT         ?C_INITSEG
            CODE    41A0H     00B9H     UNIT         ?PR?MCU_INIT?MCU
            CODE    4259H     00B3H     UNIT         ?PR?TOGGLE_TASK?SYSTEM
            CODE    430CH     00A2H     UNIT         ?PR?DOWN_CLOCK?APP_TIMER
            CODE    43AEH     009DH     UNIT         ?PR?_TM1640_SHOW_NUM?TM1640
            CODE    444BH     009DH     UNIT         ?PR?READ_PARA_BLOCK?EEPROM
            CODE    44E8H     009BH     UNIT         ?PR?_SIMPLE_ITOA?MISC
            CODE    4583H     009AH     UNIT         ?PR?_TM16XX_SHOW_HEX?TM16XX
            CODE    461DH     0092H     UNIT         ?PR?_CLOCK?APP_TIMER
            CODE    46AFH     008EH     UNIT         ?PR?KEY_SCAN?KEY_V2_3
            CODE    473DH     008CH     UNIT         ?C_C51STARTUP
            CODE    47C9H     008AH     UNIT         ?CO?BUZZER
            CODE    4853H     0087H     UNIT         ?PR?MAIN?MAIN
            CODE    48DAH     0080H     UNIT         ?PR?_KEY_TIME_COUNT?KEY_V2_3
            CODE    495AH     007FH     UNIT         ?PR?TM1640_SHOW_TIME?TM1640
            CODE    49D9H     007FH     UNIT         ?PR?_EEPROM_WRITE?EEPROM
            CODE    4A58H     007EH     UNIT         ?PR?_UART_SEND_BYTE_ISR?UART
            CODE    4AD6H     007DH     UNIT         ?PR?_CRC16_CAL?MISC
            CODE    4B53H     007CH     UNIT         ?PR?ROBAM_TASK_CTRL?APP_TIMER
            CODE    4BCFH     006EH     UNIT         ?PR?TIMERNMS_COUNT?APP_TIMER
            CODE    4C3DH     006EH     UNIT         ?PR?_PANEL_PACKET_CHECK?UART
            CODE    4CABH     006CH     UNIT         ?PR?_VERIFY_CHECK_CRC16?MISC
            CODE    4D17H     006AH     UNIT         ?PR?TIMER4_INT?INTERRUPT_S
            CODE    4D81H     0064H     UNIT         ?PR?SAVE_PARA_BLOCK?EEPROM
            CODE    4DE5H     005BH     UNIT         ?PR?UART2_INT?INTERRUPT_S
            CODE    4E40H     0059H     UNIT         ?PR?TM1640_TEST?TM1640
BL51 BANKED LINKER/LOCATER V6.22                                                      08/31/2022  18:11:48  PAGE 4


            CODE    4E99H     0059H     UNIT         ?PR?TM16XX_DRIVE?TM16XX
            CODE    4EF2H     0058H     UNIT         ?PR?_HAND_TIME_COUNT?HANDGESTURE
            CODE    4F4AH     0051H     UNIT         ?PR?_CLOCK_INIT?APP_TIMER
            CODE    4F9BH     0051H     UNIT         ?PR?_GET_CHECK_SUM?MISC
            CODE    4FECH     004DH     UNIT         ?PR?DISPLAY_DRIVE?DISPLAY
            CODE    5039H     0048H     UNIT         ?PR?_READ_E2_BYTES?EEPROM
            CODE    5081H     0048H     UNIT         ?PR?_READ_E3_BYTES?EEPROM
            CODE    50C9H     0047H     UNIT         ?PR?_UART_PACKET_DEAL?UART
            CODE    5110H     0044H     UNIT         ?PR?HANDTUBE_CTRL?HANDGESTURE
            CODE    5154H     0040H     UNIT         ?PR?_EEPROM_ERASE?EEPROM
            CODE    5194H     003FH     UNIT         ?PR?TIMER5_INT?INTERRUPT_S
            CODE    51D3H     003FH     UNIT         ?PR?TK_SAMP_FRE_SET?SINO_TK_ISR
            CODE    5212H     003BH     UNIT         ?PR?SYSTEM_INIT?SYSTEM
            CODE    524DH     003BH     UNIT         ?PR?_VERIFY_CHECK_SUM?MISC
            CODE    5288H     0037H     UNIT         ?PR?_UART_RECV_BYTE?UART
            CODE    52BFH     0032H     UNIT         ?PR?_HAND_UP_DEAL?HANDGESTURE
            CODE    52F1H     0031H     UNIT         ?PR?_KEY_UP_DEAL?KEY_V2_3_LIB
            CODE    5322H     002FH     UNIT         ?PR?TM1640_SHOW_FULLY?TM1640
            CODE    5351H     002BH     UNIT         ?PR?GET_TK_BASELINE?SINO_TOUCHKEY
            CODE    537CH     002AH     UNIT         ?PR?_TM16XX_SHOW_3_NUM?TM16XX
            CODE    53A6H     0028H     UNIT         ?PR?RESET_PARA_VALUE?SYSTEM
            CODE    53CEH     0028H     UNIT         ?PR?_MUSIC_BUZZ_START?BUZZER
            CODE    53F6H     0028H     UNIT         ?PR?_UART_SEND_BYTE?UART
            CODE    541EH     0026H     UNIT         ?PR?SYSTEM_TASKS?SYSTEM
            CODE    5444H     0026H     UNIT         ?CO?TM16XX
            CODE    546AH     0025H     UNIT         ?PR?TM16XX_ALL_SHOW?TM16XX
            CODE    548FH     0024H     UNIT         ?PR?TM16XX_CLSER?TM16XX
            CODE    54B3H     0023H     UNIT         ?PR?GESTURE_CTRL?GESTURE
            CODE    54D6H     0023H     UNIT         ?PR?_GET_PIN_STATE2?MISC
            CODE    54F9H     0023H     UNIT         ?PR?_READ_U16_INT51?MISC
            CODE    551CH     0021H     UNIT         ?PR?TM1640_SHOW_CLS?TM1640
            CODE    553DH     001EH     UNIT         ?PR?_KEY_BOARD_INIT?KEY_V2_3_LIB
            CODE    555BH     001EH     UNIT         ?PR?_KEY_BOARD_WAITUP?KEY_V2_3_LIB
            CODE    5579H     001EH     UNIT         ?PR?_SEND_BYTE?TM16XX
            CODE    5597H     001EH     UNIT         ?PR?TOUCHKEY_GO?SINO_TOUCHKEY
            CODE    55B5H     001DH     UNIT         ?PR?_TM1640_SEND_CHAR?TM1640
            CODE    55D2H     001DH     UNIT         ?PR?_HAND_GESTURE_INIT?HANDGESTURE
            CODE    55EFH     001DH     UNIT         ?PR?_WRITE_E2_BYTES?EEPROM
            CODE    560CH     001DH     UNIT         ?PR?_WRITE_E3_BYTES?EEPROM
            CODE    5629H     001CH     UNIT         ?PR?_CRC8_CALC?MISC
            CODE    5645H     001CH     UNIT         ?PR?GET_TK_STATES?SINO_TOUCHKEY
            CODE    5661H     001BH     UNIT         ?PR?_INC_DATA_16?MISC
            CODE    567CH     0019H     UNIT         ?PR?_MUSIC_BUZZ_SETFREQ?BUZZER
            CODE    5695H     0019H     UNIT         ?PR?INIT_TKERRCHK?SINO_TK_ISR
            CODE    56AEH     0016H     UNIT         ?PR?_LIM_MAX_16?MISC
            CODE    56C4H     0016H     UNIT         ?PR?_LIM_MIN_16?MISC
            CODE    56DAH     0015H     UNIT         ?PR?START_INTERRUPTS?MCU
            CODE    56EFH     0015H     UNIT         ?PR?_DEC_DATA_16?MISC
            CODE    5704H     0015H     UNIT         ?PR?PROTOCOL_INIT?PROTOCOL
            CODE    5719H     0014H     UNIT         ?PR?_LIM_MIN_8?MISC
            CODE    572DH     0014H     UNIT         ?PR?_U16_UP?MISC
            CODE    5741H     0012H     UNIT         ?PR?_UART_INIT?UART
            CODE    5753H     0011H     UNIT         ?PR?_INC_DATA_8?MISC
            CODE    5764H     0011H     UNIT         ?PR?_WRITE_U16_INT51?MISC
            CODE    5775H     0011H     UNIT         ?PR?_TM1640_SHOW_CHARACTER?TM1640
            CODE    5786H     0011H     UNIT         ?PR?_TM1640_SHOW_ICON?TM1640
            CODE    5797H     0011H     UNIT         ?PR?_UART_BYTE_TMR_DN?UART
BL51 BANKED LINKER/LOCATER V6.22                                                      08/31/2022  18:11:48  PAGE 5


            CODE    57A8H     0010H     UNIT         ?PR?_DEC_DATA_8?MISC
            CODE    57B8H     0010H     UNIT         ?PR?TM16XX_SHOW_COLON?TM16XX
            CODE    57C8H     0010H     UNIT         ?PR?DISTK?SINO_TK_ISR
            CODE    57D8H     000FH     UNIT         ?PR?_LIM_MAX_8?MISC
            CODE    57E7H     000FH     UNIT         ?PR?_U16_DN?MISC
            CODE    57F6H     000FH     UNIT         ?PR?TM1640_START?TM1640
            CODE    5805H     000FH     UNIT         ?PR?TM1640_END?TM1640
            CODE    5814H     000EH     UNIT         ?PR?PRODUCT_TASK?MAIN
            CODE    5822H     000EH     UNIT         ?PR?_U8_UP?MISC
            CODE    5830H     000EH     UNIT         ?PR?_TM1640_SHOW_DATA?TM1640
            CODE    583EH     000CH     UNIT         ?PR?MUSIC_BUZZ_INIT?BUZZER
            CODE    584AH     000CH     UNIT         ?PR?TK_RESETCHK?SINO_TK_ISR
            CODE    5856H     000CH     UNIT         ?PR?_ABS?ABS
            CODE    5862H     000BH     UNIT         ?PR?_DELAY_10US?APP_TIMER
            CODE    586DH     000BH     UNIT         ?PR?_U8_DN?MISC
            CODE    5878H     000BH     UNIT         ?PR?DELAY?TM1640
            CODE    5883H     000AH     UNIT         ?PR?CLEAR_WDT?MCU
            CODE    588DH     000AH     UNIT         ?PR?MUSIC_BUZZ_FRQOFF?BUZZER
            CODE    5897H     000AH     UNIT         ?PR?_TM16XX_SHOW_NUM_STALL?TM16XX
            CODE    58A1H     0009H     UNIT         ?PR?_TM1640_SEND_COMMAND?TM1640
            CODE    58AAH     0008H     UNIT         ?PR?DISPLAY_CLEAR?DISPLAY
            CODE    58B2H     0007H     UNIT         ?PR?_N_NOP?TM16XX
            CODE    58B9H     0006H     UNIT         ?PR?UPDATE_ALL_OUTPUT?OUTPUTS
            CODE    58BFH     0004H     UNIT         ?PR?TK_START?SINO_TK_ISR
            CODE    58C3H     0004H     UNIT         ?PR?RST_WDT?SINO_TK_ISR
            CODE    58C7H     0003H     UNIT         ?PR?CLEAR_ALL_OUTPUT?OUTPUTS
            CODE    58CAH     0003H     UNIT         ?PR?_TM1640_SEND_ADDRESS?TM1640
            CODE    58CDH     0001H     UNIT         ?PR?WHEEL_DISPLAY?DISPLAY
            CODE    58CEH     0001H     UNIT         ?PR?SH79F328_LED_INIT?DISPLAY
            CODE    58CFH     0001H     UNIT         ?PR?RUN_TASK_FUNCTION?SYSTEM
            CODE    58D0H     0001H     UNIT         ?PR?ERROR_TASK_FUNCTION?SYSTEM
            CODE    58D1H     0001H     UNIT         ?PR?GET_SCAN_VALUE?KEY_V2_3
            CODE    58D2H     0001H     UNIT         ?CO?KEY_V2_3



OVERLAY MAP OF MODULE:   .\Objects\GY_MB_MN_K2205 (INPUTS)


SEGMENT                                             BIT_GROUP          XDATA_GROUP
  +--> CALLED SEGMENT                            START    LENGTH     START    LENGTH
------------------------------------------------------------------------------------
?PR?TIMER4_INT?INTERRUPT_S                       -----    -----      -----    -----
  +--> ?PR?_UART_BYTE_TMR_DN?UART
  +--> ?PR?HANDTUBE_CTRL?HANDGESTURE

*** NEW ROOT ***************************************************

?PR?TIMER5_INT?INTERRUPT_S                       -----    -----      -----    -----
  +--> ?PR?UPDATE_HAND_GESTURE?HANDGESTURE

*** NEW ROOT ***************************************************

?PR?UART2_INT?INTERRUPT_S                        -----    -----      -----    -----
  +--> ?PR?_UART_RECV_BYTE_ISR?UART
  +--> ?PR?_UART_SEND_BYTE_ISR?UART

BL51 BANKED LINKER/LOCATER V6.22                                                      08/31/2022  18:11:48  PAGE 6


?PR?_UART_RECV_BYTE_ISR?UART                     -----    -----      02A0H    0004H
  +--> ?PR?_UART_RECV_BYTE?UART

?PR?_UART_RECV_BYTE?UART                         -----    -----      02A4H    0001H

?PR?_UART_SEND_BYTE_ISR?UART                     -----    -----      02A0H    0003H
  +--> ?PR?_UART_SEND_BYTE?UART

*** NEW ROOT ***************************************************

?PR?ISR_TK?SINO_TK_ISR                           -----    -----      -----    -----
  +--> ?CO?SINO_TK_ISR
  +--> ?PR?DISTK?SINO_TK_ISR
  +--> ?PR?_ENTK?SINO_TK_ISR

?PR?_ENTK?SINO_TK_ISR                            -----    -----      -----    -----
  +--> ?CO?SINO_TK_ISR

*** NEW ROOT ***************************************************

?C_C51STARTUP                                    -----    -----      -----    -----
  +--> ?PR?MAIN?MAIN
  +--> ?C_INITSEG

?PR?MAIN?MAIN                                    -----    -----      02A5H    0001H
  +--> ?PR?MCU_INIT?MCU
  +--> ?PR?_READ_E2_BYTES?EEPROM
  +--> ?PR?_READ_E3_BYTES?EEPROM
  +--> ?PR?READ_PARA_BLOCK?EEPROM
  +--> ?PR?SYSTEM_INIT?SYSTEM
  +--> ?PR?START_INTERRUPTS?MCU
  +--> ?PR?CLEAR_WDT?MCU
  +--> ?PR?DOWN_CLOCK?APP_TIMER
  +--> ?PR?_CLOCK?APP_TIMER
  +--> ?PR?TIMERNMS_COUNT?APP_TIMER
  +--> ?PR?ROBAM_TASK_CTRL?APP_TIMER
  +--> ?PR?_UART_PACKET_DEAL?UART
  +--> ?PR?UPDATE_ALL_INPUTS?INPUTS
  +--> ?PR?_HAND_GESTURE_SCAN?HANDGESTURE
  +--> ?PR?PRODUCT_TASK?MAIN
  +--> ?PR?UPDATE_ALL_OUTPUT?OUTPUTS

?PR?MCU_INIT?MCU                                 -----    -----      -----    -----
  +--> ?PR?CLEAR_WDT?MCU
  +--> ?PR?_DELAY_10US?APP_TIMER

?PR?CLEAR_WDT?MCU                                -----    -----      02A6H    0001H

?PR?_READ_E2_BYTES?EEPROM                        -----    -----      02A6H    0005H

?PR?_READ_E3_BYTES?EEPROM                        -----    -----      02A6H    0005H

?PR?READ_PARA_BLOCK?EEPROM                       -----    -----      02A6H    0006H

?PR?SYSTEM_INIT?SYSTEM                           -----    -----      -----    -----
  +--> ?PR?CLEAR_ALL_OUTPUT?OUTPUTS
  +--> ?PR?PROTOCOL_INIT?PROTOCOL
BL51 BANKED LINKER/LOCATER V6.22                                                      08/31/2022  18:11:48  PAGE 7


  +--> ?PR?TOUCHKEYINIT?SINO_TOUCHKEY
  +--> ?PR?_CLOCK_INIT?APP_TIMER
  +--> ?PR?_KEY_BOARD_INIT?KEY_V2_3_LIB
  +--> ?PR?GET_TK_BASELINE?SINO_TOUCHKEY
  +--> ?PR?_HAND_GESTURE_INIT?HANDGESTURE
  +--> ?PR?RESET_PARA_VALUE?SYSTEM

?PR?CLEAR_ALL_OUTPUT?OUTPUTS                     -----    -----      -----    -----
  +--> ?PR?DISPLAY_CLEAR?DISPLAY

?PR?DISPLAY_CLEAR?DISPLAY                        -----    -----      -----    -----
  +--> ?PR?TM16XX_CLSER?TM16XX

?PR?PROTOCOL_INIT?PROTOCOL                       -----    -----      -----    -----
  +--> ?PR?_UART_INIT?UART

?PR?TOUCHKEYINIT?SINO_TOUCHKEY                   -----    -----      -----    -----
  +--> ?PR?TK_PARA_INIT?SINO_TK_ISR

?PR?TK_PARA_INIT?SINO_TK_ISR                     -----    -----      02A6H    0001H
  +--> ?CO?SINO_TK_ISR
  +--> ?PR?_ENIO?SINO_TK_ISR
  +--> ?PR?_ENTK?SINO_TK_ISR
  +--> ?PR?TK_SAMP_FRE_SET?SINO_TK_ISR

?PR?TK_SAMP_FRE_SET?SINO_TK_ISR                  -----    -----      -----    -----
  +--> ?PR?DISTK?SINO_TK_ISR
  +--> ?PR?_ENTK?SINO_TK_ISR
  +--> ?CO?SINO_TK_ISR

?PR?_CLOCK_INIT?APP_TIMER                        -----    -----      02A6H    0003H

?PR?GET_TK_BASELINE?SINO_TOUCHKEY                -----    -----      -----    -----
  +--> ?PR?RST_WDT?SINO_TK_ISR
  +--> ?PR?TK_SAMP_FRE_SET?SINO_TK_ISR
  +--> ?PR?TK_START?SINO_TK_ISR
  +--> ?PR?GETINITIALTOUCHKEYDATA?SINO_TOUCHKEY
  +--> ?PR?INIT_TKERRCHK?SINO_TK_ISR

?PR?GETINITIALTOUCHKEYDATA?SINO_TOUCHKEY         -----    -----      02A6H    0006H
  +--> ?PR?TOUCHKEY_SAMP_FRE_SET?SINO_TOUCHKEY
  +--> ?CO?SINO_TK_ISR

?PR?TOUCHKEY_SAMP_FRE_SET?SINO_TOUCHKEY          -----    -----      -----    -----
  +--> ?CO?SINO_TK_ISR
  +--> ?PR?TK_SAMP_FRE_SET?SINO_TK_ISR

?PR?DOWN_CLOCK?APP_TIMER                         -----    -----      -----    -----
  +--> ?PR?_TM16XX_SHOW_NUM?TM16XX

?PR?_TM16XX_SHOW_NUM?TM16XX                      -----    -----      -----    -----
  +--> ?CO?TM16XX

?PR?_CLOCK?APP_TIMER                             -----    -----      02A6H    0003H
  +--> ?PR?_WRITE_E3_BYTES?EEPROM

?PR?_WRITE_E3_BYTES?EEPROM                       -----    -----      -----    -----
BL51 BANKED LINKER/LOCATER V6.22                                                      08/31/2022  18:11:48  PAGE 8


  +--> ?PR?_EEPROM_ERASE?EEPROM
  +--> ?PR?_EEPROM_WRITE?EEPROM

?PR?_EEPROM_ERASE?EEPROM                         0022H.6  0000H.1    -----    -----

?PR?_EEPROM_WRITE?EEPROM                         0022H.6  0000H.1    02A9H    0006H

?PR?ROBAM_TASK_CTRL?APP_TIMER                    -----    -----      -----    -----
  +--> ?PR?SAVE_PARA_BLOCK?EEPROM

?PR?SAVE_PARA_BLOCK?EEPROM                       -----    -----      -----    -----
  +--> ?PR?_EEPROM_ERASE?EEPROM
  +--> ?PR?_EEPROM_WRITE?EEPROM

?PR?_UART_PACKET_DEAL?UART                       0022H.6  0000H.1    02A6H    0003H
  +--> ?PR?_PANEL_PACKET_CHECK?UART
  +--> ?PR?_PROCESS_PACKET?PROTOCOL

?PR?_PANEL_PACKET_CHECK?UART                     0022H.7  0000H.1    02A9H    0004H
  +--> ?PR?_VERIFY_CHECK_CRC16?MISC
  +--> ?PR?_GET_CHECK_SUM?MISC

?PR?_VERIFY_CHECK_CRC16?MISC                     -----    -----      02ADH    0007H
  +--> ?PR?_CRC16_CAL?MISC

?PR?_CRC16_CAL?MISC                              -----    -----      02B4H    0008H
  +--> ?CO?MISC

?PR?_GET_CHECK_SUM?MISC                          -----    -----      02ADH    0006H

?PR?UPDATE_ALL_INPUTS?INPUTS                     -----    -----      -----    -----
  +--> ?PR?GET_TK_STATES?SINO_TOUCHKEY
  +--> ?PR?_KEY_BOARD_SCAN?KEY_V2_3_LIB

?PR?GET_TK_STATES?SINO_TOUCHKEY                  -----    -----      -----    -----
  +--> ?PR?TOUCHKEY_GO?SINO_TOUCHKEY
  +--> ?PR?KEY_JUDGE?SINO_TOUCHKEY
  +--> ?PR?TK_SAMP_FRE_SET?SINO_TK_ISR
  +--> ?PR?TK_RESETCHK?SINO_TK_ISR

?PR?TOUCHKEY_GO?SINO_TOUCHKEY                    -----    -----      -----    -----
  +--> ?PR?TK_START?SINO_TK_ISR

?PR?KEY_JUDGE?SINO_TOUCHKEY                      0022H.6  0000H.1    02A6H    0015H
  +--> ?CO?SINO_TK_ISR
  +--> ?PR?_ABS?ABS
  +--> ?PR?TOUCHKEY_SAMP_FRE_SET?SINO_TOUCHKEY

?PR?TK_RESETCHK?SINO_TK_ISR                      -----    -----      -----    -----
  +--> ?PR?GETINITIALTOUCHKEYDATA?SINO_TOUCHKEY

?PR?_KEY_BOARD_SCAN?KEY_V2_3_LIB                 -----    -----      02A6H    0003H
  +--> ?PR?KEY_SCAN?KEY_V2_3
  +--> ?CO?KEY_V2_3
  +--> ?PR?_KEY_UP_DEAL?KEY_V2_3_LIB
  +--> ?PR?_KEY_TIME_COUNT?KEY_V2_3

BL51 BANKED LINKER/LOCATER V6.22                                                      08/31/2022  18:11:48  PAGE 9


?PR?_HAND_GESTURE_SCAN?HANDGESTURE               -----    -----      02A6H    0003H
  +--> ?PR?HAND_SCAN?HANDGESTURE
  +--> ?PR?_HAND_TIME_COUNT?HANDGESTURE

?PR?HAND_SCAN?HANDGESTURE                        -----    -----      -----    -----
  +--> ?PR?_U16_DN?MISC
  +--> ?PR?_U8_UP?MISC
  +--> ?PR?_U16_UP?MISC

?PR?PRODUCT_TASK?MAIN                            -----    -----      -----    -----
  +--> ?PR?FCT_TEST_TASK?MAIN
  +--> ?PR?SYSTEM_TASKS?SYSTEM

?PR?FCT_TEST_TASK?MAIN                           -----    -----      02A6H    0002H
  +--> ?PR?_U8_DN?MISC
  +--> ?PR?_U16_DN?MISC
  +--> ?PR?DISPLAY_ALL?DISPLAY
  +--> ?PR?DISPLAY_CLEAR?DISPLAY
  +--> ?PR?_TM16XX_SHOW_NUM?TM16XX
  +--> ?PR?_TM16XX_SHOW_STALL?TM16XX
  +--> ?PR?_TM16XX_SHOW_HEX?TM16XX

?PR?DISPLAY_ALL?DISPLAY                          -----    -----      -----    -----
  +--> ?PR?TM16XX_ALL_SHOW?TM16XX

?PR?_TM16XX_SHOW_HEX?TM16XX                      -----    -----      -----    -----
  +--> ?CO?TM16XX

?PR?SYSTEM_TASKS?SYSTEM                          -----    -----      -----    -----
  +--> ?PR?TOGGLE_TASK?SYSTEM
  +--> ?PR?POWER_OFF_TASK_FUNCTION?SYSTEM
  +--> ?PR?SETTING_TASK_FUNCTION?SYSTEM
  +--> ?PR?RUN_TASK_FUNCTION?SYSTEM
  +--> ?PR?ERROR_TASK_FUNCTION?SYSTEM

?PR?TOGGLE_TASK?SYSTEM                           -----    -----      -----    -----
  +--> ?PR?TM16XX_SHOW_COLON?TM16XX

?PR?POWER_OFF_TASK_FUNCTION?SYSTEM               -----    -----      02A6H    0002H
  +--> ?PR?CLEAR_ALL_OUTPUT?OUTPUTS
  +--> ?PR?_WRITE_E3_BYTES?EEPROM
  +--> ?PR?_U16_DN?MISC

?PR?SETTING_TASK_FUNCTION?SYSTEM                 -----    -----      02A6H    0002H
  +--> ?PR?TM16XX_CLSER?TM16XX
  +--> ?PR?_LIM_MIN_8?MISC
  +--> ?PR?_LIM_MAX_8?MISC
  +--> ?PR?_WRITE_E2_BYTES?EEPROM
  +--> ?PR?_TM16XX_SHOW_3_NUM?TM16XX
  +--> ?PR?_TM16XX_SHOW_STALL?TM16XX

?PR?_WRITE_E2_BYTES?EEPROM                       -----    -----      -----    -----
  +--> ?PR?_EEPROM_ERASE?EEPROM
  +--> ?PR?_EEPROM_WRITE?EEPROM

?PR?_TM16XX_SHOW_3_NUM?TM16XX                    -----    -----      -----    -----
  +--> ?CO?TM16XX
BL51 BANKED LINKER/LOCATER V6.22                                                      08/31/2022  18:11:48  PAGE 10



?PR?UPDATE_ALL_OUTPUT?OUTPUTS                    -----    -----      -----    -----
  +--> ?PR?DISPLAY_DRIVE?DISPLAY
  +--> ?PR?SEND_PANEL_COMM?PROTOCOL

?PR?DISPLAY_DRIVE?DISPLAY                        -----    -----      -----    -----
  +--> ?PR?TM16XX_DRIVE?TM16XX

?PR?TM16XX_DRIVE?TM16XX                          -----    -----      -----    -----
  +--> ?PR?_SEND_BYTE?TM16XX

?PR?SEND_PANEL_COMM?PROTOCOL                     -----    -----      02A6H    0002H
  +--> ?PR?_CRC16_CAL?MISC
  +--> ?PR?_UART_SEND_BYTE?UART



SYMBOL TABLE OF MODULE:  .\Objects\GY_MB_MN_K2205 (INPUTS)

  VALUE           TYPE          NAME
  ----------------------------------

  -------         MODULE        INPUTS
  C:0000H         SYMBOL        _ICE_DUMMY_
  D:0080H         PUBLIC        P0
  D:0090H         PUBLIC        P1
  D:00A0H         PUBLIC        P2
  D:00B0H         PUBLIC        P3
  D:00C0H         PUBLIC        P4
  D:0080H         PUBLIC        P5
  C:002EH         PUBLIC        update_all_inputs
  -------         PROC          UPDATE_ALL_INPUTS
  C:002EH         LINE#         4
  C:002EH         LINE#         5
  C:002EH         LINE#         6
  C:0031H         LINE#         7
  C:0042H         LINE#         8
  -------         ENDPROC       UPDATE_ALL_INPUTS
  -------         ENDMOD        INPUTS

  -------         MODULE        INTERRUPT_S
  C:0000H         SYMBOL        _ICE_DUMMY_
  D:0080H         PUBLIC        P0
  D:0090H         PUBLIC        P1
  D:00A0H         PUBLIC        P2
  D:00B0H         PUBLIC        P3
  C:004EH         PUBLIC        Timer3_INT
  D:00C0H         PUBLIC        P4
  C:4D17H         PUBLIC        Timer4_INT
  D:0080H         PUBLIC        P5
  C:5194H         PUBLIC        Timer5_INT
  X:0312H         PUBLIC        time_10ms_ct
  B:0023H.0       PUBLIC        run_sec_f
  C:4DE5H         PUBLIC        UART2_INT
  D:0086H         PUBLIC        INSCON
  B:0090H.0       PUBLIC        RI2
  B:0090H.1       PUBLIC        TI2
BL51 BANKED LINKER/LOCATER V6.22                                                      08/31/2022  18:11:48  PAGE 11


  -------         PROC          TIMER3_INT
  -------         DO            
  X:030FH         SYMBOL        t_1s_ct
  -------         ENDDO         
  C:004EH         LINE#         9
  C:005BH         LINE#         12
  C:005DH         LINE#         13
  C:0060H         LINE#         15
  C:0063H         LINE#         16
  C:0070H         LINE#         17
  C:0070H         LINE#         18
  C:0072H         LINE#         19
  C:0074H         LINE#         20
  C:0074H         LINE#         22
  C:0076H         LINE#         23
  -------         ENDPROC       TIMER3_INT
  -------         PROC          TIMER4_INT
  -------         DO            
  X:0310H         SYMBOL        t10ms_ct
  X:0311H         SYMBOL        t1ms_ct
  -------         ENDDO         
  C:4D17H         LINE#         26
  C:4D34H         LINE#         30
  C:4D36H         LINE#         32
  C:4D39H         LINE#         33
  C:4D46H         LINE#         34
  C:4D46H         LINE#         35
  C:4D48H         LINE#         36
  C:4D4AH         LINE#         37
  C:4D4AH         LINE#         39
  C:4D50H         LINE#         40
  C:4D56H         LINE#         41
  C:4D56H         LINE#         42
  C:4D58H         LINE#         44
  C:4D61H         LINE#         45
  C:4D61H         LINE#         47
  C:4D64H         LINE#         48
  C:4D66H         LINE#         49
  -------         ENDPROC       TIMER4_INT
  -------         PROC          TIMER5_INT
  C:5194H         LINE#         53
  C:51B1H         LINE#         55
  C:51B3H         LINE#         57
  C:51B6H         LINE#         59
  C:51B8H         LINE#         60
  -------         ENDPROC       TIMER5_INT
  -------         PROC          UART2_INT
  C:4DE5H         LINE#         63
  C:4E02H         LINE#         65
  C:4E04H         LINE#         66
  C:4E07H         LINE#         68
  C:4E0AH         LINE#         69
  C:4E0AH         LINE#         70
  C:4E0CH         LINE#         71
  C:4E15H         LINE#         72
  C:4E15H         LINE#         74
  C:4E18H         LINE#         75
BL51 BANKED LINKER/LOCATER V6.22                                                      08/31/2022  18:11:48  PAGE 12


  C:4E18H         LINE#         76
  C:4E1AH         LINE#         77
  C:4E23H         LINE#         78
  C:4E23H         LINE#         80
  C:4E25H         LINE#         81
  -------         ENDPROC       UART2_INT
  -------         ENDMOD        INTERRUPT_S

  -------         MODULE        MCU
  C:0000H         SYMBOL        _ICE_DUMMY_
  D:0080H         PUBLIC        P0
  D:0090H         PUBLIC        P1
  D:00A0H         PUBLIC        P2
  D:00B0H         PUBLIC        P3
  D:00E2H         PUBLIC        UART0CR
  D:00C0H         PUBLIC        P4
  D:00E3H         PUBLIC        UART1CR
  D:0080H         PUBLIC        P5
  B:00A8H.7       PUBLIC        EA
  D:00D9H         PUBLIC        PWM0CON
  D:00C1H         PUBLIC        PWM1CON
  D:00E6H         PUBLIC        PWMCR
  D:00A9H         PUBLIC        IEN1
  D:00AAH         PUBLIC        IEN2
  D:00E1H         PUBLIC        P0CR
  D:00E2H         PUBLIC        P1CR
  D:00E3H         PUBLIC        P2CR
  D:00E4H         PUBLIC        P3CR
  D:00E5H         PUBLIC        P4CR
  D:00E1H         PUBLIC        P5CR
  D:0096H         PUBLIC        SFINE2
  D:00DDH         PUBLIC        PWM0DH
  D:00C5H         PUBLIC        PWM1DH
  D:00DCH         PUBLIC        PWM0DL
  D:00C4H         PUBLIC        PWM1DL
  D:0095H         PUBLIC        SBRTH2
  D:00B1H         PUBLIC        RSTSTAT
  C:5883H         PUBLIC        clear_wdt
  D:0094H         PUBLIC        SBRTL2
  D:00B2H         PUBLIC        CLKCON
  D:00DBH         PUBLIC        PWM0PH
  D:00C3H         PUBLIC        PWM1PH
  D:00DAH         PUBLIC        PWM0PL
  D:00C2H         PUBLIC        PWM1PL
  B:00A8H.5       PUBLIC        ET3
  D:0086H         PUBLIC        INSCON
  B:00A8H.3       PUBLIC        ET5
  D:008DH         PUBLIC        TH3
  D:00CDH         PUBLIC        TH4
  D:00CFH         PUBLIC        TH5
  D:008CH         PUBLIC        TL3
  D:00CCH         PUBLIC        TL4
  D:00CEH         PUBLIC        TL5
  B:0088H.2       PUBLIC        TR3
  B:00C8H.1       PUBLIC        TR4
  B:00C0H.1       PUBLIC        TR5
  C:41A0H         PUBLIC        mcu_init
BL51 BANKED LINKER/LOCATER V6.22                                                      08/31/2022  18:11:48  PAGE 13


  D:0090H         PUBLIC        SCON2
  D:00E9H         PUBLIC        P0PCR
  D:00EAH         PUBLIC        P1PCR
  D:0088H         PUBLIC        T3CON
  D:00EBH         PUBLIC        P2PCR
  D:00ECH         PUBLIC        P3PCR
  D:00EDH         PUBLIC        P4PCR
  D:00E9H         PUBLIC        P5PCR
  C:56DAH         PUBLIC        start_interrupts
  -------         PROC          CLEAR_WDT
  -------         DO            
  X:02A6H         SYMBOL        val
  -------         ENDDO         
  C:5883H         LINE#         5
  C:5883H         LINE#         6
  C:5883H         LINE#         7
  C:5889H         LINE#         8
  C:588CH         LINE#         9
  -------         ENDPROC       CLEAR_WDT
  -------         PROC          MCU_INIT
  C:41A0H         LINE#         19
  C:41A0H         LINE#         20
  C:41A0H         LINE#         21
  C:41A3H         LINE#         26
  C:41A6H         LINE#         27
  C:41A9H         LINE#         28
  C:41ACH         LINE#         30
  C:41AEH         LINE#         31
  C:41B0H         LINE#         32
  C:41B3H         LINE#         34
  C:41B6H         LINE#         35
  C:41B9H         LINE#         36
  C:41BCH         LINE#         38
  C:41BEH         LINE#         39
  C:41C1H         LINE#         40
  C:41C3H         LINE#         42
  C:41C6H         LINE#         43
  C:41C9H         LINE#         44
  C:41CCH         LINE#         46
  C:41CFH         LINE#         47
  C:41D1H         LINE#         48
  C:41D4H         LINE#         49
  C:41D6H         LINE#         52
  C:41D8H         LINE#         53
  C:41DAH         LINE#         55
  C:41DDH         LINE#         66
  C:41E0H         LINE#         67
  C:41E6H         LINE#         68
  C:41E9H         LINE#         75
  C:41ECH         LINE#         76
  C:41EFH         LINE#         78
  C:41F2H         LINE#         79
  C:41F5H         LINE#         80
  C:41F8H         LINE#         82
  C:41FAH         LINE#         86
  C:41FDH         LINE#         88
  C:4200H         LINE#         89
BL51 BANKED LINKER/LOCATER V6.22                                                      08/31/2022  18:11:48  PAGE 14


  C:4203H         LINE#         90
  C:4206H         LINE#         92
  C:4209H         LINE#         95
  C:420CH         LINE#         96
  C:420FH         LINE#         97
  C:4212H         LINE#         99
  C:4215H         LINE#         101
  C:4217H         LINE#         104
  C:421AH         LINE#         105
  C:421DH         LINE#         106
  C:4220H         LINE#         110
  C:4223H         LINE#         111
  C:4225H         LINE#         112
  C:4228H         LINE#         113
  C:422AH         LINE#         114
  C:422DH         LINE#         117
  C:4230H         LINE#         118
  C:4233H         LINE#         119
  C:4235H         LINE#         120
  C:4238H         LINE#         121
  C:423AH         LINE#         122
  C:423DH         LINE#         123
  C:4240H         LINE#         163
  C:4243H         LINE#         165
  C:4246H         LINE#         166
  C:4249H         LINE#         167
  C:424CH         LINE#         168
  C:424FH         LINE#         169
  C:4252H         LINE#         171
  C:4255H         LINE#         173
  C:4258H         LINE#         183
  -------         ENDPROC       MCU_INIT
  -------         PROC          START_INTERRUPTS
  C:56DAH         LINE#         185
  C:56DAH         LINE#         186
  C:56DAH         LINE#         196
  C:56DCH         LINE#         197
  C:56DFH         LINE#         198
  C:56E1H         LINE#         199
  C:56E3H         LINE#         200
  C:56E5H         LINE#         201
  C:56E8H         LINE#         202
  C:56EBH         LINE#         203
  C:56EEH         LINE#         205
  -------         ENDPROC       START_INTERRUPTS
  -------         ENDMOD        MCU

  -------         MODULE        OUTPUTS
  C:0000H         SYMBOL        _ICE_DUMMY_
  D:0080H         PUBLIC        P0
  D:0090H         PUBLIC        P1
  D:00A0H         PUBLIC        P2
  D:00B0H         PUBLIC        P3
  D:00C0H         PUBLIC        P4
  D:0080H         PUBLIC        P5
  C:58B9H         PUBLIC        update_all_output
  C:58C7H         PUBLIC        clear_all_output
BL51 BANKED LINKER/LOCATER V6.22                                                      08/31/2022  18:11:48  PAGE 15


  -------         PROC          CLEAR_ALL_OUTPUT
  C:58C7H         LINE#         16
  C:58C7H         LINE#         17
  C:58C7H         LINE#         18
  -------         ENDPROC       CLEAR_ALL_OUTPUT
  -------         PROC          UPDATE_ALL_OUTPUT
  C:58B9H         LINE#         24
  C:58B9H         LINE#         25
  C:58B9H         LINE#         26
  C:58BCH         LINE#         27
  -------         ENDPROC       UPDATE_ALL_OUTPUT
  -------         ENDMOD        OUTPUTS

  -------         MODULE        GESTURE
  C:0000H         SYMBOL        _ICE_DUMMY_
  D:0080H         PUBLIC        P0
  D:0090H         PUBLIC        P1
  D:00A0H         PUBLIC        P2
  D:00B0H         PUBLIC        P3
  D:00C0H         PUBLIC        P4
  D:0080H         PUBLIC        P5
  D:00D9H         PUBLIC        PWM0CON
  D:00C1H         PUBLIC        PWM1CON
  X:0300H         PUBLIC        gesture_right_count
  C:54B3H         PUBLIC        gesture_ctrl
  X:0302H         PUBLIC        gesture_left_count
  D:0086H         PUBLIC        INSCON
  C:000EH         PUBLIC        gesture_pwm_off
  C:001EH         PUBLIC        gesture_pwm_on
  -------         PROC          GESTURE_PWM_OFF
  C:000EH         LINE#         5
  C:000EH         LINE#         6
  C:000EH         LINE#         7
  C:0011H         LINE#         9
  C:0014H         LINE#         10
  C:0017H         LINE#         11
  C:001AH         LINE#         12
  -------         ENDPROC       GESTURE_PWM_OFF
  -------         PROC          GESTURE_PWM_ON
  C:001EH         LINE#         14
  C:001EH         LINE#         15
  C:001EH         LINE#         16
  C:0021H         LINE#         18
  C:0024H         LINE#         19
  C:0027H         LINE#         20
  C:002AH         LINE#         21
  -------         ENDPROC       GESTURE_PWM_ON
  -------         PROC          GESTURE_CTRL
  -------         DO            
  X:02FEH         SYMBOL        gesture_time
  X:02FFH         SYMBOL        gesture_off_time
  -------         ENDDO         
  C:54B3H         LINE#         25
  C:54B3H         LINE#         26
  C:54B3H         LINE#         30
  C:54B9H         LINE#         31
  C:54B9H         LINE#         32
BL51 BANKED LINKER/LOCATER V6.22                                                      08/31/2022  18:11:48  PAGE 16


  C:54BBH         LINE#         33
  C:54C6H         LINE#         34
  C:54C6H         LINE#         35
  C:54C9H         LINE#         36
  C:54C9H         LINE#         38
  C:54C9H         LINE#         39
  C:54CCH         LINE#         40
  C:54CCH         LINE#         41
  C:54CCH         LINE#         43
  C:54CCH         LINE#         44
  C:54D2H         LINE#         45
  C:54D5H         LINE#         46
  C:54D5H         LINE#         47
  -------         ENDPROC       GESTURE_CTRL
  -------         ENDMOD        GESTURE

  -------         MODULE        DISPLAY
  C:0000H         SYMBOL        _ICE_DUMMY_
  C:58CEH         PUBLIC        sh79f328_led_init
  D:0080H         PUBLIC        P0
  D:0090H         PUBLIC        P1
  D:00A0H         PUBLIC        P2
  D:00B0H         PUBLIC        P3
  D:00C0H         PUBLIC        P4
  D:0080H         PUBLIC        P5
  B:00A0H.2       PUBLIC        P2_2
  B:00B0H.2       PUBLIC        P3_2
  C:0003H         PUBLIC        display_all
  B:00A0H.4       PUBLIC        P2_4
  B:00B0H.3       PUBLIC        P3_3
  B:00A0H.5       PUBLIC        P2_5
  B:0080H.2       PUBLIC        P5_2
  B:00B0H.6       PUBLIC        P3_6
  B:00B0H.7       PUBLIC        P3_7
  I:001EH         PUBLIC        leds
  C:0082H         PUBLIC        dis_level_light
  D:0086H         PUBLIC        INSCON
  C:58AAH         PUBLIC        display_clear
  C:0081H         PUBLIC        dis_digital_screen
  C:58CDH         PUBLIC        wheel_display
  C:4FECH         PUBLIC        display_drive
  -------         PROC          DISPLAY_ALL
  C:0003H         LINE#         17
  C:0003H         LINE#         18
  C:0003H         LINE#         19
  C:0006H         LINE#         20
  C:000AH         LINE#         21
  -------         ENDPROC       DISPLAY_ALL
  -------         PROC          DISPLAY_CLEAR
  C:58AAH         LINE#         23
  C:58AAH         LINE#         24
  C:58AAH         LINE#         25
  C:58ADH         LINE#         26
  C:58B1H         LINE#         27
  -------         ENDPROC       DISPLAY_CLEAR
  -------         PROC          DIS_DIGITAL_SCREEN
  C:0081H         LINE#         29
BL51 BANKED LINKER/LOCATER V6.22                                                      08/31/2022  18:11:48  PAGE 17


  C:0081H         LINE#         30
  C:0081H         LINE#         33
  -------         ENDPROC       DIS_DIGITAL_SCREEN
  -------         PROC          DIS_LEVEL_LIGHT
  C:0082H         LINE#         35
  C:0082H         LINE#         36
  C:0082H         LINE#         38
  -------         ENDPROC       DIS_LEVEL_LIGHT
  -------         PROC          WHEEL_DISPLAY
  C:58CDH         LINE#         40
  C:58CDH         LINE#         41
  C:58CDH         LINE#         43
  -------         ENDPROC       WHEEL_DISPLAY
  -------         PROC          DISPLAY_DRIVE
  C:4FECH         LINE#         45
  C:4FECH         LINE#         46
  C:4FECH         LINE#         47
  C:4FEFH         LINE#         48
  C:4FF6H         LINE#         49
  C:4FFCH         LINE#         50
  C:5005H         LINE#         51
  C:500EH         LINE#         52
  C:5016H         LINE#         53
  C:501EH         LINE#         54
  C:5028H         LINE#         55
  C:502BH         LINE#         56
  C:5035H         LINE#         57
  C:5038H         LINE#         58
  -------         ENDPROC       DISPLAY_DRIVE
  -------         PROC          SH79F328_LED_INIT
  C:58CEH         LINE#         69
  C:58CEH         LINE#         70
  C:58CEH         LINE#         80
  -------         ENDPROC       SH79F328_LED_INIT
  -------         ENDMOD        DISPLAY

  -------         MODULE        MAIN
  C:0000H         SYMBOL        _ICE_DUMMY_
  D:0080H         PUBLIC        P0
  D:0090H         PUBLIC        P1
  D:00A0H         PUBLIC        P2
  D:00B0H         PUBLIC        P3
  D:00C0H         PUBLIC        P4
  D:0080H         PUBLIC        P5
  B:00A8H.7       PUBLIC        EA
  C:5814H         PUBLIC        product_task
  C:4853H         PUBLIC        main
  C:2764H         SYMBOL        fct_test_task
  -------         PROC          MAIN
  -------         DO            
  X:02A5H         SYMBOL        pon_1s
  -------         ENDDO         
  C:4853H         LINE#         3
  C:4853H         LINE#         4
  C:4853H         LINE#         5
  C:4859H         LINE#         6
  C:485BH         LINE#         7
BL51 BANKED LINKER/LOCATER V6.22                                                      08/31/2022  18:11:48  PAGE 18


  C:485EH         LINE#         8
  C:4869H         LINE#         9
  C:4874H         LINE#         10
  C:4877H         LINE#         11
  C:487AH         LINE#         12
  C:487DH         LINE#         13
  C:487DH         LINE#         14
  C:487DH         LINE#         15
  C:4880H         LINE#         16
  C:4883H         LINE#         17
  C:4883H         LINE#         18
  C:4885H         LINE#         19
  C:4888H         LINE#         20
  C:4891H         LINE#         21
  C:4894H         LINE#         22
  C:4897H         LINE#         23
  C:48A0H         LINE#         24
  C:48A3H         LINE#         25
  C:48A9H         LINE#         26
  C:48A9H         LINE#         27
  C:48AFH         LINE#         28
  C:48AFH         LINE#         29
  C:48B8H         LINE#         30
  C:48B8H         LINE#         31
  C:48BAH         LINE#         33
  C:48BAH         LINE#         34
  C:48C0H         LINE#         35
  C:48C0H         LINE#         36
  C:48C6H         LINE#         37
  C:48C6H         LINE#         38
  C:48C8H         LINE#         39
  C:48CCH         LINE#         40
  C:48CFH         LINE#         41
  C:48D0H         LINE#         42
  C:48D2H         LINE#         44
  C:48D2H         LINE#         45
  C:48D5H         LINE#         46
  C:48D5H         LINE#         49
  C:48D8H         LINE#         51
  C:48D8H         LINE#         52
  -------         ENDPROC       MAIN
  -------         PROC          FCT_TEST_TASK
  -------         DO            
  X:0317H         SYMBOL        step
  X:0318H         SYMBOL        step_tmr
  X:02A6H         SYMBOL        kv
  X:02A7H         SYMBOL        hv
  -------         ENDDO         
  C:2764H         LINE#         55
  C:2764H         LINE#         56
  C:2764H         LINE#         60
  C:276BH         LINE#         61
  C:2773H         LINE#         62
  C:277CH         LINE#         63
  C:2785H         LINE#         64
  C:278BH         LINE#         65
  C:278BH         LINE#         66
BL51 BANKED LINKER/LOCATER V6.22                                                      08/31/2022  18:11:48  PAGE 19


  C:2791H         LINE#         67
  C:2797H         LINE#         68
  C:279AH         LINE#         70
  C:279AH         LINE#         72
  C:27A1H         LINE#         73
  C:27A1H         LINE#         74
  C:27A4H         LINE#         75
  C:27B1H         LINE#         76
  C:27B1H         LINE#         77
  C:27B9H         LINE#         78
  C:27BFH         LINE#         79
  C:27C0H         LINE#         82
  C:27C0H         LINE#         84
  C:27C3H         LINE#         85
  C:27CCH         LINE#         86
  C:27CCH         LINE#         87
  C:27D4H         LINE#         88
  C:27D4H         LINE#         89
  C:27DCH         LINE#         90
  C:27E2H         LINE#         91
  C:27E8H         LINE#         92
  C:27E8H         LINE#         93
  C:27FEH         LINE#         94
  C:27FEH         LINE#         95
  C:2805H         LINE#         96
  C:280CH         LINE#         97
  C:2813H         LINE#         98
  C:281AH         LINE#         99
  C:281AH         LINE#         101
  C:281AH         LINE#         103
  C:2823H         LINE#         104
  C:2823H         LINE#         105
  C:282BH         LINE#         106
  C:282BH         LINE#         107
  C:2833H         LINE#         108
  C:2839H         LINE#         109
  C:2839H         LINE#         111
  C:284EH         LINE#         113
  C:284EH         LINE#         115
  C:2858H         LINE#         116
  C:2858H         LINE#         117
  C:2860H         LINE#         118
  C:2860H         LINE#         119
  C:2868H         LINE#         120
  C:286EH         LINE#         121
  C:286EH         LINE#         122
  C:289BH         LINE#         123
  C:289BH         LINE#         124
  C:28A2H         LINE#         125
  C:28A9H         LINE#         126
  C:28B0H         LINE#         127
  C:28B7H         LINE#         128
  C:28BEH         LINE#         129
  C:28C5H         LINE#         130
  C:28CCH         LINE#         131
  C:28D3H         LINE#         132
  C:28D3H         LINE#         134
BL51 BANKED LINKER/LOCATER V6.22                                                      08/31/2022  18:11:48  PAGE 20


  C:28D3H         LINE#         135
  C:28D9H         LINE#         136
  C:28D9H         LINE#         137
  C:28E3H         LINE#         138
  C:28E3H         LINE#         139
  C:28EBH         LINE#         140
  C:28F1H         LINE#         141
  C:28F1H         LINE#         142
  C:28FBH         LINE#         144
  C:28FBH         LINE#         145
  C:2909H         LINE#         146
  C:2913H         LINE#         147
  C:2921H         LINE#         148
  C:292BH         LINE#         149
  C:2938H         LINE#         150
  C:2946H         LINE#         151
  C:2950H         LINE#         152
  C:295DH         LINE#         153
  C:296BH         LINE#         154
  C:2975H         LINE#         155
  C:2981H         LINE#         156
  C:298DH         LINE#         157
  C:2999H         LINE#         158
  C:29A5H         LINE#         159
  C:29B1H         LINE#         160
  C:29BDH         LINE#         161
  C:29C9H         LINE#         162
  C:29D5H         LINE#         163
  C:29DBH         LINE#         164
  C:29DBH         LINE#         165
  C:29DFH         LINE#         166
  C:29E6H         LINE#         167
  C:29E6H         LINE#         168
  -------         ENDPROC       FCT_TEST_TASK
  -------         PROC          PRODUCT_TASK
  C:5814H         LINE#         170
  C:5814H         LINE#         171
  C:5814H         LINE#         173
  C:581BH         LINE#         174
  C:581BH         LINE#         175
  C:581EH         LINE#         177
  C:581EH         LINE#         178
  C:5821H         LINE#         179
  -------         ENDPROC       PRODUCT_TASK
  -------         ENDMOD        MAIN

  -------         MODULE        SYSTEM
  C:0000H         SYMBOL        _ICE_DUMMY_
  D:0080H         PUBLIC        P0
  D:0090H         PUBLIC        P1
  D:00A0H         PUBLIC        P2
  X:026CH         PUBLIC        Robam_info
  X:0275H         PUBLIC        device_info
  D:00B0H         PUBLIC        P3
  D:00C0H         PUBLIC        P4
  D:0080H         PUBLIC        P5
  X:0279H         PUBLIC        robam_delay
BL51 BANKED LINKER/LOCATER V6.22                                                      08/31/2022  18:11:48  PAGE 21


  X:027BH         PUBLIC        pushrod_state
  C:58D0H         SYMBOL        error_task_function
  X:027CH         PUBLIC        robam_gear
  X:027DH         PUBLIC        robam_state
  C:4259H         SYMBOL        toggle_task
  X:027EH         PUBLIC        hour_twinkle
  X:027FH         PUBLIC        Key_Flag_Sys
  X:0287H         PUBLIC        system_state
  C:53A6H         PUBLIC        reset_para_value
  C:29E7H         SYMBOL        power_off_task_function
  C:541EH         PUBLIC        system_tasks
  X:0288H         PUBLIC        robam_gear_old
  X:0289H         PUBLIC        status_info
  C:58CFH         SYMBOL        run_task_function
  C:5212H         PUBLIC        system_init
  X:0295H         PUBLIC        pon_2s
  X:0296H         PUBLIC        pon_3s
  X:0298H         PUBLIC        buzz_mode
  C:1E79H         SYMBOL        setting_task_function
  X:0299H         PUBLIC        add_50hour_up
  X:029DH         PUBLIC        minute_twinkle
  X:029EH         PUBLIC        clock_eeprom
  -------         PROC          POWER_OFF_TASK_FUNCTION
  -------         DO            
  X:026BH         SYMBOL        execute_one
  X:02A6H         SYMBOL        hv
  X:02A7H         SYMBOL        kv
  -------         ENDDO         
  C:29E7H         LINE#         21
  C:29E7H         LINE#         22
  C:29E7H         LINE#         24
  C:29EFH         LINE#         25
  C:29F4H         LINE#         27
  C:29FAH         LINE#         28
  C:29FAH         LINE#         29
  C:29FDH         LINE#         30
  C:2A02H         LINE#         31
  C:2A02H         LINE#         33
  C:2A14H         LINE#         34
  C:2A14H         LINE#         35
  C:2A18H         LINE#         36
  C:2A1CH         LINE#         39
  C:2A3AH         LINE#         40
  C:2A3AH         LINE#         41
  C:2A40H         LINE#         42
  C:2A46H         LINE#         43
  C:2A4BH         LINE#         44
  C:2A50H         LINE#         45
  C:2A53H         LINE#         47
  C:2A5DH         LINE#         48
  C:2A5DH         LINE#         49
  C:2A63H         LINE#         50
  C:2A65H         LINE#         51
  C:2A65H         LINE#         52
  C:2A67H         LINE#         54
  C:2A75H         LINE#         55
  C:2A75H         LINE#         56
BL51 BANKED LINKER/LOCATER V6.22                                                      08/31/2022  18:11:48  PAGE 22


  C:2A7BH         LINE#         57
  C:2A7CH         LINE#         58
  C:2A7CH         LINE#         59
  C:2A7EH         LINE#         61
  C:2A8DH         LINE#         62
  C:2A8DH         LINE#         63
  C:2A92H         LINE#         64
  C:2A96H         LINE#         65
  C:2A98H         LINE#         66
  C:2A98H         LINE#         67
  C:2A9BH         LINE#         69
  C:2AA6H         LINE#         70
  C:2AA6H         LINE#         71
  C:2AABH         LINE#         72
  C:2AAFH         LINE#         73
  C:2AAFH         LINE#         74
  C:2AAFH         LINE#         75
  C:2AB1H         LINE#         77
  C:2ABFH         LINE#         78
  C:2ABFH         LINE#         79
  C:2AC5H         LINE#         80
  C:2AC9H         LINE#         81
  C:2AD1H         LINE#         82
  C:2AD2H         LINE#         83
  C:2AD5H         LINE#         85
  C:2AE4H         LINE#         86
  C:2AE4H         LINE#         87
  C:2AE7H         LINE#         88
  C:2AEDH         LINE#         89
  C:2AF2H         LINE#         90
  C:2AF5H         LINE#         92
  C:2B02H         LINE#         93
  C:2B02H         LINE#         94
  C:2B03H         LINE#         95
  C:2B09H         LINE#         96
  C:2B0EH         LINE#         97
  C:2B12H         LINE#         98
  C:2B15H         LINE#         99
  C:2B2BH         LINE#         100
  C:2B36H         LINE#         101
  C:2B39H         LINE#         102
  C:2B3BH         LINE#         104
  C:2B49H         LINE#         105
  C:2B49H         LINE#         106
  C:2B52H         LINE#         107
  C:2B52H         LINE#         108
  C:2B54H         LINE#         109
  C:2B54H         LINE#         110
  C:2B57H         LINE#         111
  C:2B59H         LINE#         113
  C:2B68H         LINE#         114
  C:2B68H         LINE#         115
  C:2B71H         LINE#         116
  C:2B71H         LINE#         117
  C:2B73H         LINE#         118
  C:2B73H         LINE#         119
  C:2B76H         LINE#         120
BL51 BANKED LINKER/LOCATER V6.22                                                      08/31/2022  18:11:48  PAGE 23


  C:2B78H         LINE#         122
  C:2B83H         LINE#         123
  C:2B83H         LINE#         124
  C:2B8CH         LINE#         125
  C:2B8CH         LINE#         126
  C:2B8EH         LINE#         127
  C:2B8EH         LINE#         128
  C:2B91H         LINE#         129
  C:2B93H         LINE#         131
  C:2BA1H         LINE#         132
  C:2BA1H         LINE#         133
  C:2BAAH         LINE#         134
  C:2BAAH         LINE#         135
  C:2BACH         LINE#         136
  C:2BACH         LINE#         137
  C:2BB2H         LINE#         138
  C:2BB2H         LINE#         139
  C:2BB2H         LINE#         141
  C:2BB9H         LINE#         142
  C:2BB9H         LINE#         143
  C:2BBAH         LINE#         144
  C:2BC0H         LINE#         146
  C:2BCEH         LINE#         147
  C:2BCEH         LINE#         148
  C:2BD7H         LINE#         149
  C:2BDDH         LINE#         150
  C:2BE3H         LINE#         151
  C:2BE5H         LINE#         153
  C:2BEFH         LINE#         154
  C:2BEFH         LINE#         155
  C:2BF1H         LINE#         156
  C:2BF7H         LINE#         157
  C:2BF9H         LINE#         159
  C:2C1CH         LINE#         160
  C:2C1CH         LINE#         161
  C:2C26H         LINE#         162
  C:2C2CH         LINE#         163
  C:2C2CH         LINE#         164
  C:2C2CH         LINE#         166
  C:2C39H         LINE#         167
  C:2C39H         LINE#         168
  C:2C42H         LINE#         169
  C:2C42H         LINE#         171
  C:2C53H         LINE#         172
  C:2C53H         LINE#         173
  C:2C57H         LINE#         174
  C:2C5BH         LINE#         175
  C:2C5DH         LINE#         176
  C:2C63H         LINE#         177
  C:2C66H         LINE#         178
  C:2C69H         LINE#         179
  C:2C69H         LINE#         181
  -------         ENDPROC       POWER_OFF_TASK_FUNCTION
  -------         PROC          SETTING_TASK_FUNCTION
  -------         DO            
  X:02A6H         SYMBOL        hv
  X:02A7H         SYMBOL        kv
BL51 BANKED LINKER/LOCATER V6.22                                                      08/31/2022  18:11:48  PAGE 24


  -------         ENDDO         
  C:1E79H         LINE#         183
  C:1E79H         LINE#         184
  C:1E79H         LINE#         185
  C:1E81H         LINE#         186
  C:1E86H         LINE#         188
  C:1E8CH         LINE#         189
  C:1E8CH         LINE#         190
  C:1E92H         LINE#         191
  C:1E95H         LINE#         192
  C:1E98H         LINE#         193
  C:1E9EH         LINE#         195
  C:1EA1H         LINE#         196
  C:1EA5H         LINE#         197
  C:1EA7H         LINE#         198
  C:1EACH         LINE#         200
  C:1EACH         LINE#         202
  C:1EBEH         LINE#         203
  C:1EBEH         LINE#         204
  C:1EC2H         LINE#         205
  C:1EC6H         LINE#         208
  C:1ED5H         LINE#         209
  C:1ED5H         LINE#         210
  C:1EDEH         LINE#         211
  C:1EE2H         LINE#         212
  C:1EE5H         LINE#         213
  C:1EEBH         LINE#         214
  C:1EF0H         LINE#         215
  C:1EF0H         LINE#         216
  C:1EF3H         LINE#         218
  C:1F06H         LINE#         219
  C:1F06H         LINE#         220
  C:1F0BH         LINE#         221
  C:1F0FH         LINE#         222
  C:1F13H         LINE#         223
  C:1F17H         LINE#         224
  C:1F1BH         LINE#         225
  C:1F1DH         LINE#         226
  C:1F23H         LINE#         227
  C:1F26H         LINE#         229
  C:1F35H         LINE#         230
  C:1F35H         LINE#         231
  C:1F3BH         LINE#         232
  C:1F3FH         LINE#         233
  C:1F41H         LINE#         234
  C:1F44H         LINE#         239
  C:1F58H         LINE#         240
  C:1F58H         LINE#         241
  C:1F5EH         LINE#         242
  C:1F69H         LINE#         243
  C:1F69H         LINE#         244
  C:1F69H         LINE#         245
  C:1F69H         LINE#         246
  C:1F69H         LINE#         247
  C:1F6BH         LINE#         249
  C:1F82H         LINE#         250
  C:1F82H         LINE#         251
BL51 BANKED LINKER/LOCATER V6.22                                                      08/31/2022  18:11:48  PAGE 25


  C:1F88H         LINE#         252
  C:1F93H         LINE#         253
  C:1F97H         LINE#         254
  C:1F99H         LINE#         255
  C:1F9FH         LINE#         256
  C:1FAAH         LINE#         257
  C:1FADH         LINE#         261
  C:1FC3H         LINE#         262
  C:1FC3H         LINE#         263
  C:1FD1H         LINE#         264
  C:1FD5H         LINE#         265
  C:1FD8H         LINE#         266
  C:1FE4H         LINE#         267
  C:1FE7H         LINE#         269
  C:1FFEH         LINE#         270
  C:1FFEH         LINE#         271
  C:200CH         LINE#         272
  C:2010H         LINE#         273
  C:2013H         LINE#         274
  C:201FH         LINE#         275
  C:2022H         LINE#         277
  C:202DH         LINE#         278
  C:202DH         LINE#         279
  C:2033H         LINE#         280
  C:203AH         LINE#         281
  C:203EH         LINE#         282
  C:2041H         LINE#         283
  C:2049H         LINE#         284
  C:204FH         LINE#         285
  C:2054H         LINE#         286
  C:2054H         LINE#         287
  C:2056H         LINE#         288
  C:2064H         LINE#         289
  C:2064H         LINE#         290
  C:2066H         LINE#         291
  C:2069H         LINE#         292
  C:206BH         LINE#         293
  C:2073H         LINE#         294
  C:2079H         LINE#         295
  C:2079H         LINE#         296
  C:207BH         LINE#         298
  C:2089H         LINE#         299
  C:2089H         LINE#         300
  C:208FH         LINE#         301
  C:2092H         LINE#         302
  C:2092H         LINE#         303
  C:2094H         LINE#         304
  C:209FH         LINE#         305
  C:209FH         LINE#         306
  C:20A5H         LINE#         307
  C:20A7H         LINE#         308
  C:20ADH         LINE#         309
  C:20ADH         LINE#         311
  C:20ADH         LINE#         313
  C:20B4H         LINE#         314
  C:20B4H         LINE#         315
  C:20B5H         LINE#         316
BL51 BANKED LINKER/LOCATER V6.22                                                      08/31/2022  18:11:48  PAGE 26


  C:20BBH         LINE#         317
  C:20C2H         LINE#         318
  C:20C2H         LINE#         319
  C:20C4H         LINE#         320
  C:20C7H         LINE#         321
  C:20C9H         LINE#         322
  C:20D1H         LINE#         323
  C:20D7H         LINE#         324
  C:20D9H         LINE#         325
  C:20E0H         LINE#         326
  C:20E0H         LINE#         327
  C:20E5H         LINE#         328
  C:20E9H         LINE#         329
  C:20EDH         LINE#         330
  C:20EFH         LINE#         331
  C:20EFH         LINE#         332
  C:20EFH         LINE#         334
  C:20F5H         LINE#         335
  C:20F5H         LINE#         336
  C:20F7H         LINE#         337
  C:20FDH         LINE#         338
  C:2120H         LINE#         339
  C:2120H         LINE#         340
  C:212AH         LINE#         341
  C:2130H         LINE#         342
  C:2130H         LINE#         343
  C:2130H         LINE#         344
  C:2162H         LINE#         345
  C:2162H         LINE#         346
  C:216AH         LINE#         347
  C:2172H         LINE#         348
  C:217AH         LINE#         349
  C:2182H         LINE#         350
  C:218AH         LINE#         351
  C:2192H         LINE#         352
  C:219AH         LINE#         353
  C:21A0H         LINE#         354
  C:21A0H         LINE#         355
  C:21AFH         LINE#         356
  C:21AFH         LINE#         357
  C:21BAH         LINE#         358
  C:21BAH         LINE#         360
  C:21C3H         LINE#         361
  C:21C3H         LINE#         362
  C:21CBH         LINE#         363
  C:21CBH         LINE#         364
  -------         ENDPROC       SETTING_TASK_FUNCTION
  -------         PROC          RUN_TASK_FUNCTION
  C:58CFH         LINE#         367
  C:58CFH         LINE#         368
  C:58CFH         LINE#         370
  -------         ENDPROC       RUN_TASK_FUNCTION
  -------         PROC          ERROR_TASK_FUNCTION
  C:58D0H         LINE#         371
  C:58D0H         LINE#         372
  C:58D0H         LINE#         374
  -------         ENDPROC       ERROR_TASK_FUNCTION
BL51 BANKED LINKER/LOCATER V6.22                                                      08/31/2022  18:11:48  PAGE 27


  -------         PROC          TOGGLE_TASK
  C:4259H         LINE#         375
  C:4259H         LINE#         376
  C:4259H         LINE#         377
  C:4262H         LINE#         378
  C:4262H         LINE#         379
  C:4268H         LINE#         380
  C:4268H         LINE#         381
  C:426BH         LINE#         382
  C:426BH         LINE#         383
  C:4287H         LINE#         384
  C:4287H         LINE#         385
  C:4292H         LINE#         386
  C:4298H         LINE#         387
  C:4298H         LINE#         388
  C:429FH         LINE#         389
  C:429FH         LINE#         390
  C:42AAH         LINE#         391
  C:42B0H         LINE#         392
  C:42B0H         LINE#         393
  C:42B7H         LINE#         394
  C:42B7H         LINE#         395
  C:42C2H         LINE#         396
  C:42C8H         LINE#         397
  C:42C8H         LINE#         398
  C:42D0H         LINE#         399
  C:42D0H         LINE#         400
  C:42DAH         LINE#         401
  C:42E0H         LINE#         402
  C:42E0H         LINE#         403
  C:42E4H         LINE#         404
  C:42E4H         LINE#         405
  C:42EEH         LINE#         406
  C:42F4H         LINE#         407
  C:42F4H         LINE#         408
  C:42FBH         LINE#         409
  C:42FBH         LINE#         410
  C:4305H         LINE#         411
  C:430BH         LINE#         412
  C:430BH         LINE#         413
  C:430BH         LINE#         414
  -------         ENDPROC       TOGGLE_TASK
  -------         PROC          SYSTEM_TASKS
  C:541EH         LINE#         420
  C:541EH         LINE#         421
  C:541EH         LINE#         422
  C:5421H         LINE#         423
  C:5432H         LINE#         424
  C:5432H         LINE#         425
  C:5432H         LINE#         426
  C:5435H         LINE#         427
  C:5435H         LINE#         429
  C:5435H         LINE#         431
  C:5438H         LINE#         432
  C:5438H         LINE#         434
  C:5438H         LINE#         435
  C:543BH         LINE#         436
BL51 BANKED LINKER/LOCATER V6.22                                                      08/31/2022  18:11:48  PAGE 28


  C:543BH         LINE#         438
  C:543BH         LINE#         439
  C:543EH         LINE#         440
  C:543EH         LINE#         442
  C:543EH         LINE#         443
  C:5443H         LINE#         444
  C:5443H         LINE#         447
  -------         ENDPROC       SYSTEM_TASKS
  -------         PROC          RESET_PARA_VALUE
  C:53A6H         LINE#         454
  C:53A6H         LINE#         455
  C:53A6H         LINE#         456
  C:53ACH         LINE#         457
  C:53B0H         LINE#         458
  C:53B3H         LINE#         459
  C:53B7H         LINE#         460
  C:53BBH         LINE#         461
  C:53BFH         LINE#         462
  C:53C1H         LINE#         463
  C:53C3H         LINE#         464
  C:53C5H         LINE#         465
  C:53C7H         LINE#         466
  C:53C9H         LINE#         467
  C:53CBH         LINE#         468
  C:53CDH         LINE#         469
  -------         ENDPROC       RESET_PARA_VALUE
  -------         PROC          SYSTEM_INIT
  C:5212H         LINE#         471
  C:5212H         LINE#         472
  C:5212H         LINE#         473
  C:5215H         LINE#         474
  C:521AH         LINE#         475
  C:5220H         LINE#         476
  C:5226H         LINE#         477
  C:5229H         LINE#         478
  C:522CH         LINE#         479
  C:5235H         LINE#         480
  C:523EH         LINE#         481
  C:5241H         LINE#         482
  C:524AH         LINE#         483
  -------         ENDPROC       SYSTEM_INIT
  -------         ENDMOD        SYSTEM

  -------         MODULE        APP_TIMER
  C:0000H         SYMBOL        _ICE_DUMMY_
  D:0080H         PUBLIC        P0
  B:0022H.0       PUBLIC        half_sec_f
  D:0090H         PUBLIC        P1
  D:00A0H         PUBLIC        P2
  D:00B0H         PUBLIC        P3
  D:00C0H         PUBLIC        P4
  D:0080H         PUBLIC        P5
  B:0022H.1       PUBLIC        base_10ms_f
  I:000AH         PUBLIC        clock
  I:000DH         PUBLIC        Down_Tmer
  C:4F4AH         PUBLIC        _clock_init
  B:0022H.2       PUBLIC        rtc_sec_f
BL51 BANKED LINKER/LOCATER V6.22                                                      08/31/2022  18:11:48  PAGE 29


  C:5862H         PUBLIC        _delay_10us
  C:4BCFH         PUBLIC        TimerNms_count
  C:4B53H         PUBLIC        robam_task_ctrl
  I:0015H         PUBLIC        cycle_tmr
  I:0019H         PUBLIC        system_tmrs
  C:430CH         PUBLIC        Down_Clock
  C:461DH         PUBLIC        _Clock
  B:0022H.3       PUBLIC        sec_flash_f
  -------         PROC          _DELAY_10US
  D:0006H         SYMBOL        i
  C:5862H         LINE#         42
  C:5862H         LINE#         43
  C:5862H         LINE#         44
  C:586CH         LINE#         45
  -------         ENDPROC       _DELAY_10US
  -------         PROC          ROBAM_TASK_CTRL
  -------         DO            
  X:031AH         SYMBOL        add_15min_up
  -------         ENDDO         
  C:4B53H         LINE#         47
  C:4B53H         LINE#         48
  C:4B53H         LINE#         50
  C:4B59H         LINE#         51
  C:4B59H         LINE#         52
  C:4B5FH         LINE#         53
  C:4B5FH         LINE#         54
  C:4B7EH         LINE#         55
  C:4B8CH         LINE#         56
  C:4B8CH         LINE#         57
  C:4BA8H         LINE#         58
  C:4BA8H         LINE#         59
  C:4BAEH         LINE#         60
  C:4BB8H         LINE#         61
  C:4BB8H         LINE#         63
  C:4BC7H         LINE#         64
  C:4BC7H         LINE#         65
  C:4BCBH         LINE#         66
  C:4BCEH         LINE#         67
  C:4BCEH         LINE#         68
  C:4BCEH         LINE#         69
  -------         ENDPROC       ROBAM_TASK_CTRL
  -------         PROC          DOWN_CLOCK
  C:430CH         LINE#         76
  C:430CH         LINE#         77
  C:430CH         LINE#         78
  C:4311H         LINE#         79
  C:4311H         LINE#         80
  C:431AH         LINE#         81
  C:431AH         LINE#         82
  C:432CH         LINE#         83
  C:433EH         LINE#         84
  C:4352H         LINE#         85
  C:4366H         LINE#         86
  C:436DH         LINE#         87
  C:436DH         LINE#         88
  C:4370H         LINE#         89
  C:4372H         LINE#         90
BL51 BANKED LINKER/LOCATER V6.22                                                      08/31/2022  18:11:48  PAGE 30


  C:4375H         LINE#         91
  C:4377H         LINE#         93
  C:4377H         LINE#         94
  C:437BH         LINE#         95
  C:4383H         LINE#         96
  C:4383H         LINE#         97
  C:4383H         LINE#         98
  C:4385H         LINE#         100
  C:4385H         LINE#         101
  C:439DH         LINE#         102
  C:439DH         LINE#         103
  C:43A2H         LINE#         104
  C:43A2H         LINE#         105
  C:43ADH         LINE#         106
  C:43ADH         LINE#         108
  -------         ENDPROC       DOWN_CLOCK
  -------         PROC          _CLOCK
  X:02A6H         SYMBOL        clock
  C:461DH         LINE#         116
  C:4628H         LINE#         117
  C:4628H         LINE#         118
  C:462EH         LINE#         119
  C:462EH         LINE#         120
  C:4630H         LINE#         121
  C:4648H         LINE#         122
  C:4648H         LINE#         123
  C:464FH         LINE#         124
  C:466BH         LINE#         125
  C:4676H         LINE#         126
  C:468EH         LINE#         127
  C:468EH         LINE#         128
  C:4695H         LINE#         130
  C:469FH         LINE#         131
  C:469FH         LINE#         132
  C:46AEH         LINE#         133
  C:46AEH         LINE#         134
  C:46AEH         LINE#         135
  C:46AEH         LINE#         136
  C:46AEH         LINE#         138
  -------         ENDPROC       _CLOCK
  -------         PROC          _CLOCK_INIT
  X:02A6H         SYMBOL        clock
  C:4F4AH         LINE#         146
  C:4F55H         LINE#         147
  C:4F55H         LINE#         148
  C:4F73H         LINE#         149
  C:4F94H         LINE#         150
  -------         ENDPROC       _CLOCK_INIT
  -------         PROC          TIMERNMS_COUNT
  -------         DO            
  X:031CH         SYMBOL        nms_ct
  -------         ENDDO         
  C:4BCFH         LINE#         159
  C:4BCFH         LINE#         160
  C:4BCFH         LINE#         163
  C:4BE9H         LINE#         165
  C:4BEDH         LINE#         167
BL51 BANKED LINKER/LOCATER V6.22                                                      08/31/2022  18:11:48  PAGE 31


  C:4BF8H         LINE#         168
  C:4BFAH         LINE#         170
  C:4C02H         LINE#         171
  C:4C08H         LINE#         173
  C:4C11H         LINE#         174
  C:4C17H         LINE#         176
  C:4C20H         LINE#         177
  C:4C20H         LINE#         178
  C:4C26H         LINE#         179
  C:4C2BH         LINE#         180
  C:4C2BH         LINE#         182
  C:4C31H         LINE#         183
  C:4C31H         LINE#         184
  C:4C37H         LINE#         185
  C:4C3CH         LINE#         186
  C:4C3CH         LINE#         203
  -------         ENDPROC       TIMERNMS_COUNT
  -------         ENDMOD        APP_TIMER

  -------         MODULE        BUZZER
  C:0000H         SYMBOL        _ICE_DUMMY_
  D:0080H         PUBLIC        P0
  D:0090H         PUBLIC        P1
  D:00A0H         PUBLIC        P2
  D:00B0H         PUBLIC        P3
  D:00C0H         PUBLIC        P4
  D:0080H         PUBLIC        P5
  D:00D9H         PUBLIC        PWM0CON
  X:02F3H         SYMBOL        pTone
  B:00B0H.5       PUBLIC        P3_5
  B:00B0H.6       PUBLIC        P3_6
  D:00DDH         PUBLIC        PWM0DH
  D:00DCH         PUBLIC        PWM0DL
  D:00DBH         PUBLIC        PWM0PH
  D:00DAH         PUBLIC        PWM0PL
  C:47C9H         PUBLIC        Tone1
  C:47E7H         PUBLIC        Tone2
  C:47FFH         PUBLIC        Tone3
  C:4817H         PUBLIC        Tone4
  C:4823H         PUBLIC        Tone5
  C:482FH         PUBLIC        Tone6
  C:4841H         PUBLIC        tone_tbl
  C:53CEH         PUBLIC        _music_buzz_start
  C:583EH         PUBLIC        music_buzz_init
  C:401DH         PUBLIC        music_buzz_ctrl
  X:02F5H         PUBLIC        buzz_step
  C:567CH         PUBLIC        _music_buzz_SetFreq
  C:588DH         PUBLIC        music_buzz_FrqOff
  -------         PROC          MUSIC_BUZZ_FRQOFF
  C:588DH         LINE#         25
  C:588DH         LINE#         26
  C:588DH         LINE#         27
  C:588FH         LINE#         29
  C:5892H         LINE#         30
  C:5894H         LINE#         31
  C:5896H         LINE#         32
  -------         ENDPROC       MUSIC_BUZZ_FRQOFF
BL51 BANKED LINKER/LOCATER V6.22                                                      08/31/2022  18:11:48  PAGE 32


  -------         PROC          _MUSIC_BUZZ_SETFREQ
  D:0004H         SYMBOL        f
  C:567CH         LINE#         42
  C:5680H         LINE#         43
  C:5680H         LINE#         44
  C:5683H         LINE#         45
  C:5686H         LINE#         46
  C:568EH         LINE#         47
  C:5691H         LINE#         49
  C:5694H         LINE#         50
  -------         ENDPROC       _MUSIC_BUZZ_SETFREQ
  -------         PROC          _MUSIC_BUZZ_START
  D:0007H         SYMBOL        type
  C:53CEH         LINE#         109
  C:53CEH         LINE#         110
  C:53CEH         LINE#         111
  C:53D4H         LINE#         113
  C:53F2H         LINE#         115
  C:53F5H         LINE#         116
  -------         ENDPROC       _MUSIC_BUZZ_START
  -------         PROC          MUSIC_BUZZ_CTRL
  -------         DO            
  X:02EDH         SYMBOL        Tone
  -------         ENDDO         
  C:401DH         LINE#         124
  C:401DH         LINE#         125
  C:401DH         LINE#         128
  C:402AH         LINE#         129
  C:402AH         LINE#         130
  C:402AH         LINE#         131
  C:4043H         LINE#         134
  C:4059H         LINE#         135
  C:4059H         LINE#         136
  C:405FH         LINE#         137
  C:4060H         LINE#         138
  C:4060H         LINE#         140
  C:4074H         LINE#         141
  C:408FH         LINE#         143
  C:4095H         LINE#         144
  C:4096H         LINE#         146
  C:4096H         LINE#         147
  C:40A0H         LINE#         148
  C:40A0H         LINE#         149
  C:40AEH         LINE#         150
  C:40C3H         LINE#         151
  C:40C3H         LINE#         152
  C:40C5H         LINE#         153
  C:40C6H         LINE#         155
  C:40C6H         LINE#         156
  C:40C8H         LINE#         157
  C:40C8H         LINE#         158
  C:40C9H         LINE#         160
  C:40C9H         LINE#         161
  C:40D7H         LINE#         162
  C:40DCH         LINE#         163
  C:40DCH         LINE#         164
  C:40DDH         LINE#         166
BL51 BANKED LINKER/LOCATER V6.22                                                      08/31/2022  18:11:48  PAGE 33


  C:40DDH         LINE#         167
  C:40DFH         LINE#         168
  C:40E2H         LINE#         169
  C:40E2H         LINE#         170
  C:40E2H         LINE#         171
  -------         ENDPROC       MUSIC_BUZZ_CTRL
  -------         PROC          MUSIC_BUZZ_INIT
  C:583EH         LINE#         179
  C:583EH         LINE#         180
  C:583EH         LINE#         181
  C:5840H         LINE#         182
  C:5843H         LINE#         183
  C:5849H         LINE#         184
  -------         ENDPROC       MUSIC_BUZZ_INIT
  -------         ENDMOD        BUZZER

  -------         MODULE        KEY_V2_3
  C:0000H         SYMBOL        _ICE_DUMMY_
  D:0080H         PUBLIC        P0
  D:0090H         PUBLIC        P1
  D:00A0H         PUBLIC        P2
  D:00B0H         PUBLIC        P3
  D:00C0H         PUBLIC        P4
  D:0080H         PUBLIC        P5
  C:58D1H         PUBLIC        get_scan_value
  I:001AH         PUBLIC        kb
  C:58D2H         PUBLIC        Down_ct
  X:031DH         PUBLIC        scan_key
  C:46AFH         PUBLIC        key_scan
  C:48DAH         PUBLIC        _key_time_count
  -------         PROC          GET_SCAN_VALUE
  C:58D1H         LINE#         25
  C:58D1H         LINE#         26
  C:58D1H         LINE#         47
  -------         ENDPROC       GET_SCAN_VALUE
  -------         PROC          KEY_SCAN
  -------         DO            
  D:0006H         SYMBOL        keyscanval
  -------         ENDDO         
  C:46AFH         LINE#         54
  C:46AFH         LINE#         55
  C:46AFH         LINE#         56
  C:46AFH         LINE#         58
  C:46B7H         LINE#         60
  C:46BDH         LINE#         61
  C:46BDH         LINE#         62
  C:4707H         LINE#         63
  C:4707H         LINE#         64
  C:470AH         LINE#         65
  C:470DH         LINE#         66
  C:4710H         LINE#         67
  C:4713H         LINE#         68
  C:4716H         LINE#         69
  C:4719H         LINE#         70
  C:471CH         LINE#         71
  C:471FH         LINE#         72
  C:4722H         LINE#         73
BL51 BANKED LINKER/LOCATER V6.22                                                      08/31/2022  18:11:48  PAGE 34


  C:4725H         LINE#         74
  C:4728H         LINE#         75
  C:472BH         LINE#         76
  C:472EH         LINE#         77
  C:4731H         LINE#         78
  C:4734H         LINE#         79
  C:4737H         LINE#         80
  C:4737H         LINE#         81
  C:473AH         LINE#         82
  C:473AH         LINE#         83
  C:473AH         LINE#         85
  C:473CH         LINE#         86
  -------         ENDPROC       KEY_SCAN
  -------         PROC          _KEY_TIME_COUNT
  D:0001H         SYMBOL        kb
  C:48DAH         LINE#         94
  C:48DAH         LINE#         95
  C:48DAH         LINE#         96
  C:48E2H         LINE#         97
  C:48F0H         LINE#         98
  C:48F7H         LINE#         100
  C:48FBH         LINE#         102
  C:4902H         LINE#         103
  C:4921H         LINE#         104
  C:4921H         LINE#         105
  C:4921H         LINE#         106
  C:4926H         LINE#         107
  C:4928H         LINE#         109
  C:4928H         LINE#         110
  C:492DH         LINE#         111
  C:492FH         LINE#         113
  C:492FH         LINE#         114
  C:4934H         LINE#         115
  C:4936H         LINE#         117
  C:4936H         LINE#         118
  C:493BH         LINE#         119
  C:493DH         LINE#         121
  C:493DH         LINE#         122
  C:4942H         LINE#         123
  C:4944H         LINE#         125
  C:4944H         LINE#         126
  C:4949H         LINE#         127
  C:494BH         LINE#         129
  C:494BH         LINE#         130
  C:4951H         LINE#         131
  C:4959H         LINE#         132
  C:4959H         LINE#         133
  -------         ENDPROC       _KEY_TIME_COUNT
  -------         ENDMOD        KEY_V2_3

  -------         MODULE        KEY_V2_3_LIB
  C:0000H         SYMBOL        _ICE_DUMMY_
  D:0080H         PUBLIC        P0
  D:0090H         PUBLIC        P1
  D:00A0H         PUBLIC        P2
  D:00B0H         PUBLIC        P3
  D:00C0H         PUBLIC        P4
BL51 BANKED LINKER/LOCATER V6.22                                                      08/31/2022  18:11:48  PAGE 35


  D:0080H         PUBLIC        P5
  C:5304H         SYMBOL        _key_up_deal
  X:0316H         SYMBOL        scan_state
  C:555BH         PUBLIC        _key_board_waitup
  C:36F2H         PUBLIC        _key_board_scan
  C:553DH         PUBLIC        _key_board_init
  -------         PROC          _KEY_BOARD_INIT
  D:0001H         SYMBOL        kb
  C:553DH         LINE#         27
  C:553DH         LINE#         28
  C:553DH         LINE#         29
  C:5544H         LINE#         30
  C:554BH         LINE#         31
  C:5552H         LINE#         32
  C:5556H         LINE#         34
  C:555AH         LINE#         35
  -------         ENDPROC       _KEY_BOARD_INIT
  -------         PROC          L?0024
  -------         ENDPROC       L?0024
  -------         PROC          _KEY_UP_DEAL
  D:0001H         SYMBOL        kb
  C:5304H         LINE#         43
  C:5304H         LINE#         44
  C:5304H         LINE#         45
  C:5312H         LINE#         46
  C:5316H         LINE#         48
  C:531BH         LINE#         50
  -------         ENDPROC       _KEY_UP_DEAL
  -------         PROC          _KEY_BOARD_SCAN
  X:02A6H         SYMBOL        kb
  -------         DO            
  X:0313H         SYMBOL        old_scan_v
  X:0314H         SYMBOL        old_key_v
  X:0315H         SYMBOL        scan_ct
  D:0007H         SYMBOL        scanvaltmp
  C:3759H         SYMBOL        nokey
  -------         ENDDO         
  C:36F2H         LINE#         60
  C:36FDH         LINE#         61
  C:36FDH         LINE#         68
  C:3700H         LINE#         70
  C:3707H         LINE#         71
  C:3707H         LINE#         72
  C:3709H         LINE#         73
  C:370EH         LINE#         74
  C:3710H         LINE#         75
  C:3710H         LINE#         77
  C:3720H         LINE#         78
  C:3722H         LINE#         79
  C:3727H         LINE#         81
  C:372FH         LINE#         82
  C:372FH         LINE#         83
  C:3734H         LINE#         84
  C:373EH         LINE#         85
  C:373EH         LINE#         86
  C:3741H         LINE#         87
  C:3745H         LINE#         89
BL51 BANKED LINKER/LOCATER V6.22                                                      08/31/2022  18:11:48  PAGE 36


  C:3747H         LINE#         90
  C:3747H         LINE#         92
  C:374BH         LINE#         93
  C:374BH         LINE#         96
  C:3750H         LINE#         97
  C:3750H         LINE#         99
  C:3759H         LINE#         100
  C:3759H         LINE#         101
  C:3759H         LINE#         102
  C:3768H         LINE#         103
  C:377AH         LINE#         104
  C:3781H         LINE#         105
  C:3788H         LINE#         106
  C:378AH         LINE#         107
  C:378AH         LINE#         109
  C:378EH         LINE#         110
  C:378EH         LINE#         111
  C:3794H         LINE#         112
  C:3799H         LINE#         113
  C:379BH         LINE#         114
  C:379BH         LINE#         116
  C:379EH         LINE#         117
  C:379EH         LINE#         118
  C:37AFH         LINE#         119
  C:37AFH         LINE#         120
  C:37B2H         LINE#         121
  C:37B4H         LINE#         122
  C:37B4H         LINE#         124
  C:37BCH         LINE#         125
  C:37BCH         LINE#         127
  C:37BFH         LINE#         128
  C:37BFH         LINE#         129
  C:37D0H         LINE#         130
  C:37D0H         LINE#         131
  C:37D2H         LINE#         133
  C:37D2H         LINE#         138
  C:37E3H         LINE#         139
  C:37E3H         LINE#         140
  C:37E6H         LINE#         144
  C:37E6H         LINE#         151
  C:37E8H         LINE#         153
  C:37E8H         LINE#         154
  C:37F6H         LINE#         155
  C:37F6H         LINE#         157
  C:37F7H         LINE#         158
  -------         ENDPROC       _KEY_BOARD_SCAN
  -------         PROC          _KEY_BOARD_WAITUP
  D:0001H         SYMBOL        kb
  C:555BH         LINE#         166
  C:555BH         LINE#         167
  C:555BH         LINE#         169
  C:5561H         LINE#         171
  C:5565H         LINE#         172
  C:556BH         LINE#         173
  C:5572H         LINE#         174
  -------         ENDPROC       _KEY_BOARD_WAITUP
  -------         ENDMOD        KEY_V2_3_LIB
BL51 BANKED LINKER/LOCATER V6.22                                                      08/31/2022  18:11:48  PAGE 37



  -------         MODULE        MISC
  C:0000H         SYMBOL        _ICE_DUMMY_
  C:5764H         PUBLIC        _write_u16_int51
  C:5661H         PUBLIC        _inc_data_16
  D:0080H         PUBLIC        P0
  D:0090H         PUBLIC        P1
  C:5719H         PUBLIC        _lim_min_8
  D:00A0H         PUBLIC        P2
  D:00B0H         PUBLIC        P3
  C:57D8H         PUBLIC        _lim_max_8
  D:00C0H         PUBLIC        P4
  D:0080H         PUBLIC        P5
  C:21D3H         PUBLIC        crc16_table
  C:57E7H         PUBLIC        _u16_dn
  C:39FBH         PUBLIC        _bubble_sort
  C:44E8H         PUBLIC        _simple_itoa
  C:54D6H         PUBLIC        _get_pin_state2
  C:572DH         PUBLIC        _u16_up
  C:56C4H         PUBLIC        _lim_min_16
  C:524DH         PUBLIC        _verify_check_sum
  C:4AD6H         PUBLIC        _crc16_cal
  C:56AEH         PUBLIC        _lim_max_16
  C:57A8H         PUBLIC        _dec_data_8
  C:5753H         PUBLIC        _inc_data_8
  C:4F9BH         PUBLIC        _get_check_sum
  C:586DH         PUBLIC        _u8_dn
  C:5629H         PUBLIC        _crc8_calc
  C:54F9H         PUBLIC        _read_u16_int51
  C:56EFH         PUBLIC        _dec_data_16
  C:5822H         PUBLIC        _u8_up
  C:23D3H         PUBLIC        CRC8Table
  C:4CABH         PUBLIC        _verify_check_crc16
  -------         PROC          _GET_PIN_STATE2
  D:0001H         SYMBOL        ct
  B:0022H.4       SYMBOL        now
  B:0022H.5       SYMBOL        old
  C:54D6H         LINE#         51
  C:54D6H         LINE#         52
  C:54D6H         LINE#         53
  C:54DEH         LINE#         54
  C:54DEH         LINE#         55
  C:54E2H         LINE#         56
  C:54E5H         LINE#         57
  C:54E5H         LINE#         59
  C:54E5H         LINE#         60
  C:54EFH         LINE#         61
  C:54EFH         LINE#         62
  C:54F3H         LINE#         63
  C:54F6H         LINE#         64
  C:54F6H         LINE#         65
  C:54F6H         LINE#         67
  C:54F8H         LINE#         68
  -------         ENDPROC       _GET_PIN_STATE2
  -------         PROC          _BUBBLE_SORT
  X:02F6H         SYMBOL        x
  D:0005H         SYMBOL        n
BL51 BANKED LINKER/LOCATER V6.22                                                      08/31/2022  18:11:48  PAGE 38


  -------         DO            
  X:02F9H         SYMBOL        j
  X:02FAH         SYMBOL        k
  X:02FBH         SYMBOL        h
  X:02FCH         SYMBOL        t
  -------         ENDDO         
  C:39FBH         LINE#         76
  C:3A06H         LINE#         77
  C:3A06H         LINE#         81
  C:3A18H         LINE#         82
  C:3A18H         LINE#         83
  C:3A30H         LINE#         84
  C:3A30H         LINE#         85
  C:3A6DH         LINE#         86
  C:3A6DH         LINE#         87
  C:3A8BH         LINE#         88
  C:3ABBH         LINE#         89
  C:3ADAH         LINE#         90
  C:3AE0H         LINE#         91
  C:3AE0H         LINE#         92
  C:3AE9H         LINE#         93
  C:3AF2H         LINE#         94
  -------         ENDPROC       _BUBBLE_SORT
  -------         PROC          _INC_DATA_8
  D:0001H         SYMBOL        val
  D:0005H         SYMBOL        d_max
  C:5753H         LINE#         102
  C:5753H         LINE#         103
  C:5753H         LINE#         104
  C:575BH         LINE#         105
  C:575BH         LINE#         106
  C:5760H         LINE#         107
  C:5762H         LINE#         108
  C:5762H         LINE#         110
  C:5763H         LINE#         111
  -------         ENDPROC       _INC_DATA_8
  -------         PROC          _INC_DATA_16
  D:0001H         SYMBOL        val
  D:0004H         SYMBOL        d_max
  C:5661H         LINE#         113
  C:5661H         LINE#         114
  C:5661H         LINE#         115
  C:566DH         LINE#         116
  C:566DH         LINE#         117
  C:5678H         LINE#         118
  C:567AH         LINE#         119
  C:567AH         LINE#         121
  C:567BH         LINE#         122
  -------         ENDPROC       _INC_DATA_16
  -------         PROC          _DEC_DATA_8
  D:0001H         SYMBOL        val
  D:0005H         SYMBOL        d_min
  C:57A8H         LINE#         124
  C:57A8H         LINE#         125
  C:57A8H         LINE#         126
  C:57AFH         LINE#         127
  C:57AFH         LINE#         128
BL51 BANKED LINKER/LOCATER V6.22                                                      08/31/2022  18:11:48  PAGE 39


  C:57B4H         LINE#         129
  C:57B6H         LINE#         130
  C:57B6H         LINE#         132
  C:57B7H         LINE#         133
  -------         ENDPROC       _DEC_DATA_8
  -------         PROC          _DEC_DATA_16
  D:0001H         SYMBOL        val
  D:0004H         SYMBOL        d_min
  C:56EFH         LINE#         135
  C:56EFH         LINE#         136
  C:56EFH         LINE#         137
  C:56F9H         LINE#         138
  C:56F9H         LINE#         139
  C:5700H         LINE#         140
  C:5702H         LINE#         141
  C:5702H         LINE#         143
  C:5703H         LINE#         144
  -------         ENDPROC       _DEC_DATA_16
  -------         PROC          _LIM_MAX_8
  D:0001H         SYMBOL        val
  D:0005H         SYMBOL        d_max
  C:57D8H         LINE#         151
  C:57D8H         LINE#         152
  C:57D8H         LINE#         153
  C:57DFH         LINE#         154
  C:57DFH         LINE#         155
  C:57E3H         LINE#         156
  C:57E5H         LINE#         157
  C:57E5H         LINE#         159
  C:57E6H         LINE#         160
  -------         ENDPROC       _LIM_MAX_8
  -------         PROC          _LIM_MAX_16
  D:0001H         SYMBOL        val
  D:0004H         SYMBOL        d_max
  C:56AEH         LINE#         162
  C:56AEH         LINE#         163
  C:56AEH         LINE#         164
  C:56B8H         LINE#         165
  C:56B8H         LINE#         166
  C:56C0H         LINE#         167
  C:56C2H         LINE#         168
  C:56C2H         LINE#         170
  C:56C3H         LINE#         171
  -------         ENDPROC       _LIM_MAX_16
  -------         PROC          _LIM_MIN_8
  D:0001H         SYMBOL        val
  D:0005H         SYMBOL        d_min
  C:5719H         LINE#         173
  C:5719H         LINE#         174
  C:5719H         LINE#         175
  C:5725H         LINE#         176
  C:5725H         LINE#         177
  C:5729H         LINE#         178
  C:572BH         LINE#         179
  C:572BH         LINE#         181
  C:572CH         LINE#         182
  -------         ENDPROC       _LIM_MIN_8
BL51 BANKED LINKER/LOCATER V6.22                                                      08/31/2022  18:11:48  PAGE 40


  -------         PROC          _LIM_MIN_16
  D:0001H         SYMBOL        val
  D:0004H         SYMBOL        d_min
  C:56C4H         LINE#         184
  C:56C4H         LINE#         185
  C:56C4H         LINE#         186
  C:56CEH         LINE#         187
  C:56CEH         LINE#         188
  C:56D6H         LINE#         189
  C:56D8H         LINE#         190
  C:56D8H         LINE#         192
  C:56D9H         LINE#         193
  -------         ENDPROC       _LIM_MIN_16
  -------         PROC          _U8_UP
  D:0001H         SYMBOL        xp
  C:5822H         LINE#         200
  C:5822H         LINE#         201
  C:5822H         LINE#         202
  C:582AH         LINE#         203
  C:582AH         LINE#         204
  C:582FH         LINE#         205
  C:582FH         LINE#         206
  -------         ENDPROC       _U8_UP
  -------         PROC          _U8_DN
  D:0001H         SYMBOL        xp
  C:586DH         LINE#         208
  C:586DH         LINE#         209
  C:586DH         LINE#         210
  C:5872H         LINE#         211
  C:5872H         LINE#         212
  C:5877H         LINE#         213
  C:5877H         LINE#         214
  -------         ENDPROC       _U8_DN
  -------         PROC          _U16_UP
  D:0001H         SYMBOL        xp
  C:572DH         LINE#         216
  C:572DH         LINE#         217
  C:572DH         LINE#         218
  C:5739H         LINE#         219
  C:5739H         LINE#         220
  C:5740H         LINE#         221
  C:5740H         LINE#         222
  -------         ENDPROC       _U16_UP
  -------         PROC          _U16_DN
  D:0001H         SYMBOL        xp
  C:57E7H         LINE#         224
  C:57E7H         LINE#         225
  C:57E7H         LINE#         226
  C:57EEH         LINE#         227
  C:57EEH         LINE#         228
  C:57F5H         LINE#         229
  C:57F5H         LINE#         230
  -------         ENDPROC       _U16_DN
  -------         PROC          _WRITE_U16_INT51
  D:0001H         SYMBOL        addr
  D:0004H         SYMBOL        val
  C:5764H         LINE#         238
BL51 BANKED LINKER/LOCATER V6.22                                                      08/31/2022  18:11:48  PAGE 41


  C:5764H         LINE#         239
  C:5764H         LINE#         240
  C:5764H         LINE#         241
  C:576AH         LINE#         242
  C:5774H         LINE#         243
  -------         ENDPROC       _WRITE_U16_INT51
  -------         PROC          _READ_U16_INT51
  D:0001H         SYMBOL        addr
  -------         DO            
  X:031FH         SYMBOL        temp
  -------         ENDDO         
  C:54F9H         LINE#         245
  C:54F9H         LINE#         246
  C:54F9H         LINE#         249
  C:5507H         LINE#         250
  C:5513H         LINE#         252
  C:551BH         LINE#         253
  -------         ENDPROC       _READ_U16_INT51
  -------         PROC          _GET_CHECK_SUM
  X:02ADH         SYMBOL        buf
  X:02B0H         SYMBOL        len
  -------         DO            
  D:0006H         SYMBOL        i
  X:02B2H         SYMBOL        r
  -------         ENDDO         
  C:4F9BH         LINE#         262
  C:4FACH         LINE#         263
  C:4FACH         LINE#         265
  C:4FAFH         LINE#         267
  C:4FC6H         LINE#         268
  C:4FC6H         LINE#         269
  C:4FDFH         LINE#         270
  C:4FE6H         LINE#         272
  C:4FEBH         LINE#         273
  -------         ENDPROC       _GET_CHECK_SUM
  -------         PROC          _VERIFY_CHECK_SUM
  X:030AH         SYMBOL        buf
  X:030DH         SYMBOL        len
  C:524DH         LINE#         282
  C:525EH         LINE#         283
  C:525EH         LINE#         284
  C:5287H         LINE#         285
  -------         ENDPROC       _VERIFY_CHECK_SUM
  -------         PROC          _CRC16_CAL
  X:02B4H         SYMBOL        ptr
  X:02B7H         SYMBOL        cnt
  -------         DO            
  X:02B9H         SYMBOL        da
  X:02BAH         SYMBOL        crc
  -------         ENDDO         
  C:4AD6H         LINE#         377
  C:4AE7H         LINE#         378
  C:4AE7H         LINE#         380
  C:4AEFH         LINE#         382
  C:4AFDH         LINE#         383
  C:4AFDH         LINE#         384
  C:4B0AH         LINE#         385
BL51 BANKED LINKER/LOCATER V6.22                                                      08/31/2022  18:11:48  PAGE 42


  C:4B10H         LINE#         386
  C:4B48H         LINE#         387
  C:4B4AH         LINE#         389
  C:4B52H         LINE#         390
  -------         ENDPROC       _CRC16_CAL
  -------         PROC          _VERIFY_CHECK_CRC16
  X:02ADH         SYMBOL        buf
  X:02B0H         SYMBOL        len
  -------         DO            
  X:02B2H         SYMBOL        temp
  -------         ENDDO         
  C:4CABH         LINE#         392
  C:4CBCH         LINE#         393
  C:4CBCH         LINE#         396
  C:4CF5H         LINE#         398
  C:4D16H         LINE#         399
  -------         ENDPROC       _VERIFY_CHECK_CRC16
  -------         PROC          _CRC8_CALC
  D:0001H         SYMBOL        p
  D:0005H         SYMBOL        cnt
  -------         DO            
  D:0007H         SYMBOL        crc8
  -------         ENDDO         
  C:5629H         LINE#         437
  C:5629H         LINE#         438
  C:5629H         LINE#         439
  C:562BH         LINE#         441
  C:5631H         LINE#         442
  C:5631H         LINE#         443
  C:563AH         LINE#         444
  C:5641H         LINE#         445
  C:5644H         LINE#         446
  C:5644H         LINE#         447
  -------         ENDPROC       _CRC8_CALC
  -------         PROC          _SIMPLE_ITOA
  X:02E2H         SYMBOL        str
  D:0002H         SYMBOL        n
  -------         DO            
  X:02E5H         SYMBOL        i
  X:02E6H         SYMBOL        j
  X:02E7H         SYMBOL        ptr
  -------         ENDDO         
  C:44E8H         LINE#         474
  C:44F7H         LINE#         475
  C:44F7H         LINE#         476
  C:44FAH         LINE#         479
  C:44FEH         LINE#         480
  C:44FEH         LINE#         481
  C:4520H         LINE#         482
  C:452FH         LINE#         483
  C:4531H         LINE#         485
  C:4542H         LINE#         486
  C:4542H         LINE#         487
  C:456CH         LINE#         488
  C:4574H         LINE#         490
  -------         ENDPROC       _SIMPLE_ITOA
  -------         ENDMOD        MISC
BL51 BANKED LINKER/LOCATER V6.22                                                      08/31/2022  18:11:48  PAGE 43



  -------         MODULE        TM1640
  C:0000H         SYMBOL        _ICE_DUMMY_
  C:58A1H         PUBLIC        _tm1640_send_command
  D:0080H         PUBLIC        P0
  D:0090H         PUBLIC        P1
  D:00A0H         PUBLIC        P2
  D:00B0H         PUBLIC        P3
  D:00C0H         PUBLIC        P4
  C:43AEH         PUBLIC        _tm1640_show_num
  D:0080H         PUBLIC        P5
  C:58CAH         PUBLIC        _tm1640_send_address
  C:587DH         PUBLIC        delay
  B:00A0H.4       PUBLIC        P2_4
  B:00A0H.5       PUBLIC        P2_5
  X:02D3H         PUBLIC        Show_Num
  C:55B5H         PUBLIC        _tm1640_send_char
  C:57F6H         PUBLIC        tm1640_start
  C:5805H         PUBLIC        tm1640_end
  C:5830H         PUBLIC        _tm1640_show_data
  C:4E40H         PUBLIC        tm1640_test
  C:5786H         PUBLIC        _tm1640_show_icon
  X:02DDH         PUBLIC        Delay_Count
  C:5322H         PUBLIC        tm1640_show_fully
  C:495AH         PUBLIC        tm1640_show_time
  C:5775H         PUBLIC        _tm1640_show_character
  C:551CH         PUBLIC        tm1640_show_cls
  C:5878H         SYMBOL        L?0033
  -------         PROC          L?0032
  -------         ENDPROC       L?0032
  C:5878H         SYMBOL        L?0033
  -------         PROC          DELAY
  C:587DH         LINE#         6
  C:587DH         LINE#         7
  C:587DH         LINE#         8
  C:587EH         LINE#         9
  C:587FH         LINE#         10
  C:5880H         LINE#         11
  C:5881H         LINE#         12
  C:5882H         LINE#         13
  -------         ENDPROC       DELAY
  -------         PROC          TM1640_START
  C:57F6H         LINE#         15
  C:57F6H         LINE#         16
  C:57F6H         LINE#         17
  C:57FBH         LINE#         18
  C:57FDH         LINE#         19
  C:5800H         LINE#         20
  -------         ENDPROC       TM1640_START
  -------         PROC          TM1640_END
  C:5805H         LINE#         24
  C:5805H         LINE#         25
  C:5805H         LINE#         26
  C:580AH         LINE#         27
  C:580CH         LINE#         28
  C:580FH         LINE#         29
  -------         ENDPROC       TM1640_END
BL51 BANKED LINKER/LOCATER V6.22                                                      08/31/2022  18:11:48  PAGE 44


  -------         PROC          _TM1640_SEND_CHAR
  D:0007H         SYMBOL        buff
  -------         DO            
  D:0006H         SYMBOL        i
  -------         ENDDO         
  C:55B5H         LINE#         33
  C:55B5H         LINE#         34
  C:55B5H         LINE#         37
  C:55B7H         LINE#         38
  C:55B7H         LINE#         39
  C:55BCH         LINE#         40
  C:55C9H         LINE#         41
  C:55CCH         LINE#         42
  C:55D1H         LINE#         43
  -------         ENDPROC       _TM1640_SEND_CHAR
  -------         PROC          _TM1640_SEND_COMMAND
  D:0007H         SYMBOL        buff
  C:58A1H         LINE#         45
  C:58A1H         LINE#         46
  C:58A1H         LINE#         47
  C:58A4H         LINE#         48
  C:58A7H         LINE#         49
  -------         ENDPROC       _TM1640_SEND_COMMAND
  -------         PROC          _TM1640_SEND_ADDRESS
  D:0007H         SYMBOL        buff
  C:58CAH         LINE#         52
  C:58CAH         LINE#         53
  C:58CAH         LINE#         54
  -------         ENDPROC       _TM1640_SEND_ADDRESS
  -------         PROC          _TM1640_SHOW_DATA
  D:0007H         SYMBOL        address
  D:0005H         SYMBOL        buff
  C:5830H         LINE#         59
  C:5830H         LINE#         60
  C:5830H         LINE#         61
  C:5833H         LINE#         62
  C:5836H         LINE#         63
  C:583BH         LINE#         64
  -------         ENDPROC       _TM1640_SHOW_DATA
  -------         PROC          TM1640_SHOW_CLS
  -------         DO            
  D:0005H         SYMBOL        i
  -------         ENDDO         
  C:551CH         LINE#         67
  C:551CH         LINE#         68
  C:551CH         LINE#         70
  C:5521H         LINE#         71
  C:5524H         LINE#         72
  C:5529H         LINE#         73
  C:552BH         LINE#         74
  C:552BH         LINE#         75
  C:5530H         LINE#         76
  C:5535H         LINE#         77
  C:5538H         LINE#         78
  -------         ENDPROC       TM1640_SHOW_CLS
  -------         PROC          TM1640_SHOW_FULLY
  C:5322H         LINE#         81
BL51 BANKED LINKER/LOCATER V6.22                                                      08/31/2022  18:11:48  PAGE 45


  C:5322H         LINE#         82
  C:5322H         LINE#         83
  C:5329H         LINE#         84
  C:5330H         LINE#         85
  C:5337H         LINE#         86
  C:533EH         LINE#         87
  C:5345H         LINE#         88
  C:534CH         LINE#         89
  -------         ENDPROC       TM1640_SHOW_FULLY
  -------         PROC          _TM1640_SHOW_NUM
  D:0002H         SYMBOL        num
  C:43AEH         LINE#         94
  C:43B2H         LINE#         95
  C:43B2H         LINE#         96
  C:43BFH         LINE#         97
  C:43C4H         LINE#         98
  C:43E2H         LINE#         99
  C:4407H         LINE#         100
  C:442AH         LINE#         101
  C:4446H         LINE#         102
  -------         ENDPROC       _TM1640_SHOW_NUM
  -------         PROC          TM1640_SHOW_TIME
  C:495AH         LINE#         105
  C:495AH         LINE#         106
  C:495AH         LINE#         107
  C:496CH         LINE#         108
  C:4980H         LINE#         109
  C:4996H         LINE#         111
  C:49A9H         LINE#         112
  C:49C7H         LINE#         113
  C:49C7H         LINE#         114
  C:49CCH         LINE#         115
  C:49D3H         LINE#         116
  C:49D8H         LINE#         117
  C:49D8H         LINE#         119
  -------         ENDPROC       TM1640_SHOW_TIME
  -------         PROC          _TM1640_SHOW_CHARACTER
  D:0004H         SYMBOL        num
  D:0005H         SYMBOL        on_off
  C:5775H         LINE#         123
  C:5777H         LINE#         124
  C:5777H         LINE#         125
  C:577CH         LINE#         126
  C:5781H         LINE#         127
  -------         ENDPROC       _TM1640_SHOW_CHARACTER
  -------         PROC          _TM1640_SHOW_ICON
  D:0005H         SYMBOL        num
  C:5786H         LINE#         132
  C:5788H         LINE#         133
  C:5788H         LINE#         134
  C:578DH         LINE#         136
  C:5792H         LINE#         138
  -------         ENDPROC       _TM1640_SHOW_ICON
  -------         PROC          TM1640_TEST
  -------         DO            
  X:02D0H         SYMBOL        i
  X:02D1H         SYMBOL        adresee
BL51 BANKED LINKER/LOCATER V6.22                                                      08/31/2022  18:11:48  PAGE 46


  -------         ENDDO         
  C:4E40H         LINE#         142
  C:4E40H         LINE#         143
  C:4E40H         LINE#         146
  C:4E45H         LINE#         147
  C:4E55H         LINE#         148
  C:4E55H         LINE#         149
  C:4E5FH         LINE#         150
  C:4E5FH         LINE#         151
  C:4E6EH         LINE#         152
  C:4E74H         LINE#         153
  C:4E76H         LINE#         155
  C:4E76H         LINE#         156
  C:4E7BH         LINE#         157
  C:4E89H         LINE#         158
  C:4E89H         LINE#         159
  C:4E8BH         LINE#         161
  C:4E8BH         LINE#         162
  C:4E94H         LINE#         163
  C:4E94H         LINE#         164
  -------         ENDPROC       TM1640_TEST
  -------         ENDMOD        TM1640

  -------         MODULE        UART
  C:0000H         SYMBOL        _ICE_DUMMY_
  D:0080H         PUBLIC        P0
  D:0090H         PUBLIC        P1
  D:00A0H         PUBLIC        P2
  D:00B0H         PUBLIC        P3
  D:00C0H         PUBLIC        P4
  D:0080H         PUBLIC        P5
  C:4A58H         PUBLIC        _uart_send_byte_isr
  C:50C9H         PUBLIC        _uart_packet_deal
  C:3BE0H         PUBLIC        _uart_recv_byte_isr
  D:0099H         PUBLIC        SBUF
  C:5797H         PUBLIC        _uart_byte_tmr_dn
  D:0086H         PUBLIC        INSCON
  C:4C3DH         SYMBOL        _panel_packet_check
  C:5741H         PUBLIC        _uart_init
  C:53F6H         PUBLIC        _uart_send_byte
  D:00A1H         PUBLIC        SBUF1
  D:0091H         PUBLIC        SBUF2
  C:5288H         SYMBOL        _uart_recv_byte
  -------         PROC          _UART_SEND_BYTE
  D:0007H         SYMBOL        id
  D:0005H         SYMBOL        da
  C:53F6H         LINE#         26
  C:53F6H         LINE#         27
  C:53F6H         LINE#         28
  C:53F9H         LINE#         29
  C:53FBH         LINE#         31
  C:53FFH         LINE#         32
  C:53FFH         LINE#         33
  C:5401H         LINE#         34
  C:5404H         LINE#         36
  C:5406H         LINE#         38
  C:5409H         LINE#         39
BL51 BANKED LINKER/LOCATER V6.22                                                      08/31/2022  18:11:48  PAGE 47


  C:540BH         LINE#         40
  C:540BH         LINE#         41
  C:540FH         LINE#         42
  C:540FH         LINE#         43
  C:5411H         LINE#         45
  C:5414H         LINE#         47
  C:5418H         LINE#         49
  C:541BH         LINE#         51
  C:541DH         LINE#         52
  C:541DH         LINE#         53
  -------         ENDPROC       _UART_SEND_BYTE
  -------         PROC          _UART_RECV_BYTE
  D:0007H         SYMBOL        id
  -------         DO            
  X:02A4H         SYMBOL        da
  -------         ENDDO         
  C:5288H         LINE#         60
  C:5288H         LINE#         61
  C:5288H         LINE#         64
  C:528BH         LINE#         65
  C:5291H         LINE#         67
  C:5295H         LINE#         68
  C:5295H         LINE#         69
  C:5297H         LINE#         70
  C:529AH         LINE#         72
  C:52A0H         LINE#         74
  C:52A3H         LINE#         75
  C:52A5H         LINE#         76
  C:52A5H         LINE#         77
  C:52A9H         LINE#         78
  C:52A9H         LINE#         79
  C:52ABH         LINE#         80
  C:52AEH         LINE#         82
  C:52B4H         LINE#         84
  C:52B7H         LINE#         85
  C:52B9H         LINE#         86
  C:52B9H         LINE#         87
  C:52BEH         LINE#         88
  -------         ENDPROC       _UART_RECV_BYTE
  -------         PROC          _PANEL_PACKET_CHECK
  X:02A9H         SYMBOL        c_uart
  -------         DO            
  X:02ACH         SYMBOL        len
  D:0007H         SYMBOL        sum
  B:0022H.7       SYMBOL        check
  -------         ENDDO         
  C:4C3DH         LINE#         102
  C:4C48H         LINE#         103
  C:4C48H         LINE#         107
  C:4C53H         LINE#         108
  C:4C67H         LINE#         109
  C:4C6CH         LINE#         111
  C:4C88H         LINE#         112
  C:4CA7H         LINE#         113
  C:4CA9H         LINE#         115
  C:4CAAH         LINE#         116
  -------         ENDPROC       _PANEL_PACKET_CHECK
BL51 BANKED LINKER/LOCATER V6.22                                                      08/31/2022  18:11:48  PAGE 48


  -------         PROC          _UART_PACKET_DEAL
  X:02A6H         SYMBOL        c_uart
  -------         DO            
  B:0022H.6       SYMBOL        check
  -------         ENDDO         
  C:50C9H         LINE#         118
  C:50D4H         LINE#         119
  C:50D4H         LINE#         122
  C:50DCH         LINE#         123
  C:50DCH         LINE#         124
  C:50ECH         LINE#         125
  C:50EFH         LINE#         126
  C:50EFH         LINE#         127
  C:50FDH         LINE#         128
  C:50FDH         LINE#         130
  C:510FH         LINE#         131
  C:510FH         LINE#         132
  -------         ENDPROC       _UART_PACKET_DEAL
  -------         PROC          _UART_SEND_BYTE_ISR
  X:02A0H         SYMBOL        c_uart
  -------         DO            
  D:0007H         SYMBOL        len
  -------         ENDDO         
  C:4A58H         LINE#         140
  C:4A63H         LINE#         141
  C:4A63H         LINE#         144
  C:4A6BH         LINE#         145
  C:4A6BH         LINE#         146
  C:4A7DH         LINE#         148
  C:4A85H         LINE#         149
  C:4A9BH         LINE#         150
  C:4A9BH         LINE#         151
  C:4AB7H         LINE#         152
  C:4AB7H         LINE#         154
  C:4AB7H         LINE#         155
  C:4ABEH         LINE#         156
  C:4AC1H         LINE#         157
  C:4AC3H         LINE#         160
  C:4AC3H         LINE#         162
  C:4AD5H         LINE#         163
  -------         ENDPROC       _UART_SEND_BYTE_ISR
  -------         PROC          _UART_RECV_BYTE_ISR
  X:02A0H         SYMBOL        c_uart
  -------         DO            
  D:0007H         SYMBOL        uart_rx_data
  X:02A3H         SYMBOL        packet_len
  -------         ENDDO         
  C:3BE0H         LINE#         171
  C:3BEBH         LINE#         172
  C:3BEBH         LINE#         174
  C:3BEEH         LINE#         177
  C:3BF5H         LINE#         179
  C:3C08H         LINE#         180
  C:3C0EH         LINE#         181
  C:3C16H         LINE#         183
  C:3C21H         LINE#         186
  C:3C35H         LINE#         187
BL51 BANKED LINKER/LOCATER V6.22                                                      08/31/2022  18:11:48  PAGE 49


  C:3C35H         LINE#         188
  C:3C3DH         LINE#         190
  C:3C3DH         LINE#         192
  C:3C41H         LINE#         193
  C:3C41H         LINE#         194
  C:3C4AH         LINE#         195
  C:3C4AH         LINE#         196
  C:3C50H         LINE#         198
  C:3C50H         LINE#         199
  C:3C50H         LINE#         201
  C:3C75H         LINE#         202
  C:3C88H         LINE#         204
  C:3C94H         LINE#         205
  C:3CA9H         LINE#         209
  C:3CB3H         LINE#         210
  C:3CB3H         LINE#         211
  C:3CBAH         LINE#         212
  C:3CC2H         LINE#         213
  C:3CC2H         LINE#         214
  -------         ENDPROC       _UART_RECV_BYTE_ISR
  -------         PROC          _UART_BYTE_TMR_DN
  D:0001H         SYMBOL        c_uart
  C:5797H         LINE#         222
  C:5797H         LINE#         223
  C:5797H         LINE#         225
  C:579FH         LINE#         226
  C:57A7H         LINE#         227
  -------         ENDPROC       _UART_BYTE_TMR_DN
  -------         PROC          _UART_INIT
  D:0001H         SYMBOL        c_uart
  D:0005H         SYMBOL        uart_id
  C:5741H         LINE#         235
  C:5741H         LINE#         236
  C:5741H         LINE#         237
  C:5745H         LINE#         238
  C:574CH         LINE#         239
  -------         ENDPROC       _UART_INIT
  -------         ENDMOD        UART

  -------         MODULE        PROTOCOL
  C:0000H         SYMBOL        _ICE_DUMMY_
  D:0080H         PUBLIC        P0
  D:0090H         PUBLIC        P1
  D:00A0H         PUBLIC        P2
  D:00B0H         PUBLIC        P3
  D:00C0H         PUBLIC        P4
  D:0080H         PUBLIC        P5
  X:0236H         PUBLIC        fct_cont_tmr
  C:5704H         PUBLIC        protocol_init
  X:0237H         PUBLIC        panel_comm
  X:0268H         PUBLIC        discont_tmr
  C:30CAH         PUBLIC        send_panel_comm
  X:026AH         PUBLIC        fct_state
  C:3CC3H         PUBLIC        _process_packet
  -------         PROC          _PROCESS_PACKET
  D:0001H         SYMBOL        c_uart
  C:3CC3H         LINE#         15
BL51 BANKED LINKER/LOCATER V6.22                                                      08/31/2022  18:11:48  PAGE 50


  C:3CC3H         LINE#         16
  C:3CC3H         LINE#         17
  C:3CCDH         LINE#         18
  C:3CCDH         LINE#         19
  C:3CD7H         LINE#         20
  C:3CD7H         LINE#         21
  C:3CDDH         LINE#         22
  C:3CE4H         LINE#         24
  C:3CE4H         LINE#         25
  C:3CE9H         LINE#         26
  C:3CEEH         LINE#         27
  C:3CEEH         LINE#         28
  C:3CF4H         LINE#         29
  C:3CFEH         LINE#         30
  C:3D08H         LINE#         31
  C:3D12H         LINE#         32
  C:3D1DH         LINE#         34
  C:3D1DH         LINE#         36
  C:3D2DH         LINE#         37
  C:3D2DH         LINE#         38
  C:3D37H         LINE#         39
  C:3D41H         LINE#         40
  C:3D4BH         LINE#         41
  C:3D5FH         LINE#         42
  C:3D69H         LINE#         43
  C:3D7DH         LINE#         44
  C:3D91H         LINE#         45
  C:3D9BH         LINE#         46
  C:3DA5H         LINE#         49
  C:3DA5H         LINE#         50
  C:3DA5H         LINE#         51
  -------         ENDPROC       _PROCESS_PACKET
  -------         PROC          SEND_PANEL_COMM
  -------         DO            
  X:0235H         SYMBOL        send_t
  X:02A6H         SYMBOL        temp
  -------         ENDDO         
  C:30CAH         LINE#         58
  C:30CAH         LINE#         59
  C:30CAH         LINE#         64
  C:30D8H         LINE#         65
  C:30D8H         LINE#         66
  C:30DAH         LINE#         67
  C:30E5H         LINE#         68
  C:30E5H         LINE#         69
  C:30EBH         LINE#         70
  C:30EFH         LINE#         71
  C:30F3H         LINE#         73
  C:30F7H         LINE#         74
  C:30FBH         LINE#         76
  C:310EH         LINE#         77
  C:311AH         LINE#         78
  C:3122H         LINE#         79
  C:312AH         LINE#         81
  C:312EH         LINE#         83
  C:3130H         LINE#         85
  C:314CH         LINE#         87
BL51 BANKED LINKER/LOCATER V6.22                                                      08/31/2022  18:11:48  PAGE 51


  C:3159H         LINE#         88
  C:315CH         LINE#         90
  C:3162H         LINE#         91
  C:3166H         LINE#         92
  C:3166H         LINE#         94
  C:3169H         LINE#         97
  C:3169H         LINE#         99
  C:3171H         LINE#         100
  C:3171H         LINE#         101
  C:3177H         LINE#         102
  C:317BH         LINE#         103
  C:317EH         LINE#         104
  C:317EH         LINE#         105
  C:317EH         LINE#         106
  C:317EH         LINE#         108
  C:317EH         LINE#         109
  C:317EH         LINE#         110
  C:317EH         LINE#         112
  C:317EH         LINE#         113
  C:3180H         LINE#         115
  C:3180H         LINE#         117
  C:3188H         LINE#         118
  C:3188H         LINE#         119
  C:318EH         LINE#         120
  C:3192H         LINE#         121
  C:3194H         LINE#         122
  C:3197H         LINE#         123
  C:3199H         LINE#         124
  C:319BH         LINE#         126
  C:31B7H         LINE#         127
  C:31C4H         LINE#         128
  C:31C7H         LINE#         130
  C:31CDH         LINE#         131
  C:31D8H         LINE#         133
  C:31D8H         LINE#         135
  C:31E0H         LINE#         136
  C:31E0H         LINE#         137
  C:31E6H         LINE#         138
  C:31EAH         LINE#         139
  C:31EEH         LINE#         140
  C:31F1H         LINE#         142
  C:31F3H         LINE#         143
  C:31F5H         LINE#         145
  C:3211H         LINE#         146
  C:321EH         LINE#         147
  C:3221H         LINE#         148
  C:3227H         LINE#         149
  C:3232H         LINE#         150
  C:3237H         LINE#         152
  C:3237H         LINE#         153
  C:3237H         LINE#         155
  -------         ENDPROC       SEND_PANEL_COMM
  -------         PROC          PROTOCOL_INIT
  C:5704H         LINE#         172
  C:5704H         LINE#         173
  C:5704H         LINE#         174
  C:570EH         LINE#         175
BL51 BANKED LINKER/LOCATER V6.22                                                      08/31/2022  18:11:48  PAGE 52


  -------         ENDPROC       PROTOCOL_INIT
  -------         ENDMOD        PROTOCOL

  -------         MODULE        HANDGESTURE
  C:0000H         SYMBOL        _ICE_DUMMY_
  D:0080H         PUBLIC        P0
  D:0090H         PUBLIC        P1
  D:00A0H         PUBLIC        P2
  D:00B0H         PUBLIC        P3
  D:00C0H         PUBLIC        P4
  D:0080H         PUBLIC        P5
  D:00D9H         PUBLIC        PWM0CON
  D:00C1H         PUBLIC        PWM1CON
  C:3F54H         PUBLIC        _hand_gesture_scan
  B:0080H.5       PUBLIC        P0_5
  B:0080H.6       PUBLIC        P0_6
  B:00B0H.4       PUBLIC        P3_4
  B:00B0H.5       PUBLIC        P3_5
  C:55D2H         PUBLIC        _hand_gesture_init
  C:33A6H         PUBLIC        hand_scan
  X:0208H         PUBLIC        hand_task
  C:4EF2H         PUBLIC        _hand_time_count
  X:0217H         PUBLIC        gc_right
  D:0086H         PUBLIC        INSCON
  X:0223H         PUBLIC        hg
  X:0229H         PUBLIC        gc_left
  C:52BFH         SYMBOL        _hand_up_deal
  C:5110H         PUBLIC        handtube_ctrl
  C:2EAFH         PUBLIC        update_hand_gesture
  -------         PROC          HANDTUBE_CTRL
  -------         DO            
  X:01FCH         SYMBOL        hand0_ct
  X:01FDH         SYMBOL        hand1_ct
  -------         ENDDO         
  C:5110H         LINE#         15
  C:5110H         LINE#         16
  C:5110H         LINE#         22
  C:5116H         LINE#         23
  C:5116H         LINE#         24
  C:5123H         LINE#         25
  C:5123H         LINE#         26
  C:5125H         LINE#         27
  C:5128H         LINE#         28
  C:512AH         LINE#         30
  C:512AH         LINE#         31
  C:512DH         LINE#         32
  C:512FH         LINE#         33
  C:512FH         LINE#         35
  C:513CH         LINE#         36
  C:513CH         LINE#         37
  C:513EH         LINE#         38
  C:5141H         LINE#         39
  C:5144H         LINE#         40
  C:5147H         LINE#         41
  C:5148H         LINE#         43
  C:5148H         LINE#         44
  C:514BH         LINE#         45
BL51 BANKED LINKER/LOCATER V6.22                                                      08/31/2022  18:11:48  PAGE 53


  C:514EH         LINE#         46
  C:5151H         LINE#         47
  C:5153H         LINE#         48
  C:5153H         LINE#         50
  C:5153H         LINE#         51
  -------         ENDPROC       HANDTUBE_CTRL
  -------         PROC          UPDATE_HAND_GESTURE
  C:2EAFH         LINE#         59
  C:2EAFH         LINE#         60
  C:2EAFH         LINE#         61
  C:2EB8H         LINE#         63
  C:2EBEH         LINE#         64
  C:2EBEH         LINE#         65
  C:2EC4H         LINE#         66
  C:2ECAH         LINE#         67
  C:2ECAH         LINE#         68
  C:2ECFH         LINE#         69
  C:2ED3H         LINE#         70
  C:2ED7H         LINE#         71
  C:2ED7H         LINE#         72
  C:2ED7H         LINE#         74
  C:2EDDH         LINE#         75
  C:2EDDH         LINE#         76
  C:2EE3H         LINE#         77
  C:2EE3H         LINE#         79
  C:2EF1H         LINE#         80
  C:2EF1H         LINE#         81
  C:2EF5H         LINE#         82
  C:2EF7H         LINE#         84
  C:2F21H         LINE#         85
  C:2F21H         LINE#         86
  C:2F27H         LINE#         87
  C:2F29H         LINE#         89
  C:2F29H         LINE#         90
  C:2F2EH         LINE#         91
  C:2F30H         LINE#         92
  C:2F32H         LINE#         93
  C:2F32H         LINE#         94
  C:2F32H         LINE#         96
  C:2F35H         LINE#         97
  C:2F35H         LINE#         98
  C:2F3BH         LINE#         99
  C:2F42H         LINE#         100
  C:2F42H         LINE#         101
  C:2F47H         LINE#         102
  C:2F4BH         LINE#         103
  C:2F50H         LINE#         104
  C:2F53H         LINE#         106
  C:2F5CH         LINE#         107
  C:2F60H         LINE#         109
  C:2F66H         LINE#         111
  C:2F6EH         LINE#         112
  C:2F78H         LINE#         113
  C:2F7DH         LINE#         114
  C:2F85H         LINE#         120
  C:2F85H         LINE#         121
  C:2F87H         LINE#         123
BL51 BANKED LINKER/LOCATER V6.22                                                      08/31/2022  18:11:48  PAGE 54


  C:2F87H         LINE#         124
  C:2F8DH         LINE#         126
  C:2F93H         LINE#         127
  C:2F93H         LINE#         128
  C:2F98H         LINE#         129
  C:2F9CH         LINE#         130
  C:2FA4H         LINE#         131
  C:2FAAH         LINE#         132
  C:2FAFH         LINE#         133
  C:2FB8H         LINE#         134
  C:2FBCH         LINE#         136
  C:2FC2H         LINE#         137
  C:2FC2H         LINE#         139
  C:2FC2H         LINE#         141
  C:2FC8H         LINE#         142
  C:2FC8H         LINE#         143
  C:2FCEH         LINE#         144
  C:2FD4H         LINE#         145
  C:2FD4H         LINE#         146
  C:2FD9H         LINE#         147
  C:2FDDH         LINE#         148
  C:2FE1H         LINE#         149
  C:2FE1H         LINE#         150
  C:2FE1H         LINE#         152
  C:2FE7H         LINE#         153
  C:2FE7H         LINE#         154
  C:2FEDH         LINE#         155
  C:2FEDH         LINE#         157
  C:2FFBH         LINE#         158
  C:2FFBH         LINE#         159
  C:2FFFH         LINE#         160
  C:3001H         LINE#         162
  C:302BH         LINE#         163
  C:302BH         LINE#         164
  C:3031H         LINE#         165
  C:3033H         LINE#         167
  C:3033H         LINE#         168
  C:3038H         LINE#         169
  C:303AH         LINE#         170
  C:303CH         LINE#         171
  C:303CH         LINE#         172
  C:303CH         LINE#         174
  C:303FH         LINE#         175
  C:303FH         LINE#         176
  C:3045H         LINE#         177
  C:304CH         LINE#         178
  C:304CH         LINE#         179
  C:3051H         LINE#         180
  C:3055H         LINE#         181
  C:305AH         LINE#         182
  C:305DH         LINE#         184
  C:3066H         LINE#         185
  C:306AH         LINE#         187
  C:3070H         LINE#         189
  C:3078H         LINE#         190
  C:3081H         LINE#         191
  C:3086H         LINE#         192
BL51 BANKED LINKER/LOCATER V6.22                                                      08/31/2022  18:11:48  PAGE 55


  C:308EH         LINE#         198
  C:308EH         LINE#         199
  C:308FH         LINE#         201
  C:308FH         LINE#         202
  C:3095H         LINE#         204
  C:309BH         LINE#         205
  C:309BH         LINE#         206
  C:30A0H         LINE#         207
  C:30A4H         LINE#         208
  C:30ACH         LINE#         209
  C:30B2H         LINE#         210
  C:30B7H         LINE#         211
  C:30C0H         LINE#         212
  C:30C3H         LINE#         214
  C:30C9H         LINE#         215
  C:30C9H         LINE#         217
  C:30C9H         LINE#         218
  -------         ENDPROC       UPDATE_HAND_GESTURE
  -------         PROC          _HAND_GESTURE_INIT
  D:0001H         SYMBOL        hg
  C:55D2H         LINE#         226
  C:55D2H         LINE#         227
  C:55D2H         LINE#         228
  C:55DBH         LINE#         229
  C:55E4H         LINE#         230
  C:55EBH         LINE#         231
  -------         ENDPROC       _HAND_GESTURE_INIT
  -------         PROC          _HAND_UP_DEAL
  D:0001H         SYMBOL        hg
  C:52BFH         LINE#         240
  C:52BFH         LINE#         241
  C:52BFH         LINE#         242
  C:52D0H         LINE#         243
  C:52D7H         LINE#         244
  C:52E0H         LINE#         245
  C:52E8H         LINE#         247
  -------         ENDPROC       _HAND_UP_DEAL
  -------         PROC          _HAND_TIME_COUNT
  D:0001H         SYMBOL        hg
  C:4EF2H         LINE#         256
  C:4EF2H         LINE#         257
  C:4EF2H         LINE#         258
  C:4EFCH         LINE#         259
  C:4F06H         LINE#         261
  C:4F1FH         LINE#         262
  C:4F1FH         LINE#         263
  C:4F1FH         LINE#         264
  C:4F24H         LINE#         265
  C:4F26H         LINE#         267
  C:4F26H         LINE#         268
  C:4F2BH         LINE#         269
  C:4F2DH         LINE#         271
  C:4F2DH         LINE#         272
  C:4F35H         LINE#         273
  C:4F35H         LINE#         275
  C:4F35H         LINE#         276
  C:4F3EH         LINE#         277
BL51 BANKED LINKER/LOCATER V6.22                                                      08/31/2022  18:11:48  PAGE 56


  C:4F49H         LINE#         278
  C:4F49H         LINE#         279
  -------         ENDPROC       _HAND_TIME_COUNT
  -------         PROC          HAND_SCAN
  -------         DO            
  X:01FEH         SYMBOL        clear_wait_tmr
  X:0200H         SYMBOL        first_one
  X:0201H         SYMBOL        gesture
  X:0202H         SYMBOL        err_tmr
  X:0204H         SYMBOL        shake_ct
  -------         ENDDO         
  C:33A6H         LINE#         282
  C:33A6H         LINE#         283
  C:33A6H         LINE#         290
  C:33AFH         LINE#         292
  C:33C2H         LINE#         293
  C:33C2H         LINE#         294
  C:33C5H         LINE#         295
  C:33CEH         LINE#         296
  C:33CEH         LINE#         298
  C:33D1H         LINE#         299
  C:33D1H         LINE#         300
  C:33D7H         LINE#         301
  C:33D7H         LINE#         302
  C:33E9H         LINE#         303
  C:33E9H         LINE#         304
  C:33ECH         LINE#         305
  C:33EEH         LINE#         306
  C:33F3H         LINE#         307
  C:33F3H         LINE#         308
  C:33F9H         LINE#         309
  C:33F9H         LINE#         310
  C:33F9H         LINE#         312
  C:3402H         LINE#         313
  C:3404H         LINE#         314
  C:341BH         LINE#         315
  C:341BH         LINE#         316
  C:3421H         LINE#         317
  C:3421H         LINE#         320
  C:3428H         LINE#         321
  C:3428H         LINE#         322
  C:342EH         LINE#         323
  C:342EH         LINE#         324
  C:3440H         LINE#         325
  C:3440H         LINE#         326
  C:3443H         LINE#         327
  C:3445H         LINE#         328
  C:344AH         LINE#         329
  C:344AH         LINE#         330
  C:3450H         LINE#         331
  C:3450H         LINE#         332
  C:3450H         LINE#         334
  C:3459H         LINE#         336
  C:345BH         LINE#         337
  C:3472H         LINE#         338
  C:3472H         LINE#         339
  C:3478H         LINE#         340
BL51 BANKED LINKER/LOCATER V6.22                                                      08/31/2022  18:11:48  PAGE 57


  C:3478H         LINE#         347
  C:3481H         LINE#         348
  C:3481H         LINE#         349
  C:348AH         LINE#         350
  C:3493H         LINE#         351
  C:3493H         LINE#         352
  C:3499H         LINE#         353
  C:3499H         LINE#         354
  C:349EH         LINE#         355
  C:349EH         LINE#         357
  C:34A3H         LINE#         358
  C:34A7H         LINE#         359
  C:34A7H         LINE#         360
  C:34A9H         LINE#         362
  C:34A9H         LINE#         363
  C:34AEH         LINE#         364
  C:34B7H         LINE#         365
  C:34C6H         LINE#         366
  C:34C6H         LINE#         367
  C:34CCH         LINE#         368
  C:34D1H         LINE#         369
  C:34D1H         LINE#         370
  C:34D1H         LINE#         372
  C:34D6H         LINE#         373
  -------         ENDPROC       HAND_SCAN
  -------         PROC          _HAND_GESTURE_SCAN
  X:02A6H         SYMBOL        hg
  -------         DO            
  X:0205H         SYMBOL        old_scan_v
  X:0206H         SYMBOL        old_hand_v
  X:0207H         SYMBOL        scan_status
  D:0007H         SYMBOL        scanvaltmp
  C:3F89H         SYMBOL        nohand
  -------         ENDDO         
  C:3F54H         LINE#         375
  C:3F5FH         LINE#         376
  C:3F5FH         LINE#         383
  C:3F62H         LINE#         385
  C:3F69H         LINE#         386
  C:3F69H         LINE#         387
  C:3F6BH         LINE#         388
  C:3F6DH         LINE#         389
  C:3F6DH         LINE#         391
  C:3F74H         LINE#         392
  C:3F74H         LINE#         393
  C:3F79H         LINE#         394
  C:3F7CH         LINE#         395
  C:3F7EH         LINE#         397
  C:3F80H         LINE#         398
  C:3F80H         LINE#         400
  C:3F89H         LINE#         401
  C:3F89H         LINE#         402
  C:3F89H         LINE#         403
  C:3F98H         LINE#         404
  C:3FAAH         LINE#         405
  C:3FB3H         LINE#         406
  C:3FBCH         LINE#         407
BL51 BANKED LINKER/LOCATER V6.22                                                      08/31/2022  18:11:48  PAGE 58


  C:3FBEH         LINE#         408
  C:3FBEH         LINE#         410
  C:3FC2H         LINE#         411
  C:3FC2H         LINE#         412
  C:3FC8H         LINE#         413
  C:3FC8H         LINE#         414
  C:3FCAH         LINE#         415
  C:3FCAH         LINE#         418
  C:3FCDH         LINE#         419
  C:3FCDH         LINE#         420
  C:3FE1H         LINE#         421
  C:3FE6H         LINE#         423
  C:3FE8H         LINE#         424
  C:3FE8H         LINE#         426
  C:3FF2H         LINE#         427
  C:3FF2H         LINE#         428
  C:4003H         LINE#         429
  C:400BH         LINE#         430
  C:400EH         LINE#         431
  C:4010H         LINE#         433
  C:4010H         LINE#         434
  C:401BH         LINE#         435
  C:401BH         LINE#         437
  C:401CH         LINE#         438
  -------         ENDPROC       _HAND_GESTURE_SCAN
  -------         ENDMOD        HANDGESTURE

  -------         MODULE        TM16XX
  C:0000H         SYMBOL        _ICE_DUMMY_
  D:0080H         PUBLIC        P0
  D:0090H         PUBLIC        P1
  D:00A0H         PUBLIC        P2
  D:00B0H         PUBLIC        P3
  D:00C0H         PUBLIC        P4
  D:0080H         PUBLIC        P5
  C:4583H         PUBLIC        _tm16xx_show_hex
  X:02BFH         PUBLIC        colon_overturn
  C:38FCH         PUBLIC        _tm16xx_show_num
  B:00C0H.1       PUBLIC        P4_1
  C:5897H         PUBLIC        _tm16xx_show_num_stall
  B:00A0H.6       PUBLIC        P2_6
  B:00A0H.7       PUBLIC        P2_7
  X:02C0H         PUBLIC        Led_Show
  C:58B2H         SYMBOL        _n_nop
  C:537CH         PUBLIC        _tm16xx_show_3_num
  C:5444H         PUBLIC        Led_Num
  C:548FH         PUBLIC        tm16xx_clser
  C:4E99H         PUBLIC        tm16xx_drive
  C:5579H         SYMBOL        _send_byte
  C:5460H         PUBLIC        Led_Circle
  X:02CEH         PUBLIC        num_value
  C:57B8H         PUBLIC        tm16xx_show_colon
  C:2C6AH         PUBLIC        _tm16xx_show_stall
  C:546AH         PUBLIC        tm16xx_all_show
  -------         PROC          _N_NOP
  D:0007H         SYMBOL        n
  C:58B2H         LINE#         42
BL51 BANKED LINKER/LOCATER V6.22                                                      08/31/2022  18:11:48  PAGE 59


  C:58B2H         LINE#         43
  C:58B2H         LINE#         44
  C:58B8H         LINE#         45
  -------         ENDPROC       _N_NOP
  -------         PROC          _SEND_BYTE
  D:0007H         SYMBOL        dat
  -------         DO            
  D:0006H         SYMBOL        i
  -------         ENDDO         
  C:5579H         LINE#         47
  C:5579H         LINE#         48
  C:5579H         LINE#         51
  C:557BH         LINE#         52
  C:557BH         LINE#         53
  C:5585H         LINE#         54
  C:5589H         LINE#         56
  C:558BH         LINE#         57
  C:558CH         LINE#         58
  C:558DH         LINE#         59
  C:558FH         LINE#         60
  C:5590H         LINE#         61
  C:5591H         LINE#         62
  C:5596H         LINE#         63
  -------         ENDPROC       _SEND_BYTE
  -------         PROC          TM16XX_DRIVE
  -------         DO            
  X:02BCH         SYMBOL        i
  -------         ENDDO         
  C:4E99H         LINE#         71
  C:4E99H         LINE#         72
  C:4E99H         LINE#         75
  C:4E9BH         LINE#         76
  C:4E9CH         LINE#         77
  C:4E9DH         LINE#         78
  C:4EA2H         LINE#         80
  C:4EA4H         LINE#         81
  C:4EA5H         LINE#         82
  C:4EA6H         LINE#         83
  C:4EA8H         LINE#         84
  C:4EA9H         LINE#         85
  C:4EAAH         LINE#         86
  C:4EAFH         LINE#         87
  C:4EB1H         LINE#         88
  C:4EB2H         LINE#         89
  C:4EB3H         LINE#         90
  C:4EB5H         LINE#         91
  C:4EB6H         LINE#         92
  C:4EB7H         LINE#         93
  C:4EBCH         LINE#         95
  C:4ECBH         LINE#         96
  C:4ECBH         LINE#         97
  C:4EDAH         LINE#         98
  C:4EE2H         LINE#         101
  C:4EE4H         LINE#         102
  C:4EE5H         LINE#         103
  C:4EE6H         LINE#         105
  C:4EE8H         LINE#         106
BL51 BANKED LINKER/LOCATER V6.22                                                      08/31/2022  18:11:48  PAGE 60


  C:4EE9H         LINE#         107
  C:4EEAH         LINE#         108
  C:4EEFH         LINE#         110
  C:4EF1H         LINE#         112
  -------         ENDPROC       TM16XX_DRIVE
  -------         PROC          _TM16XX_SHOW_NUM
  D:0002H         SYMBOL        num
  C:38FCH         LINE#         120
  C:3900H         LINE#         121
  C:3900H         LINE#         122
  C:390CH         LINE#         123
  C:390CH         LINE#         124
  C:3912H         LINE#         125
  C:3912H         LINE#         126
  C:3917H         LINE#         127
  C:3919H         LINE#         128
  C:3921H         LINE#         129
  C:3924H         LINE#         130
  C:3926H         LINE#         132
  C:3926H         LINE#         133
  C:394CH         LINE#         134
  C:394FH         LINE#         135
  C:3982H         LINE#         136
  C:3985H         LINE#         137
  C:3985H         LINE#         138
  C:398BH         LINE#         139
  C:398BH         LINE#         140
  C:3993H         LINE#         141
  C:3996H         LINE#         142
  C:3998H         LINE#         143
  C:399AH         LINE#         144
  C:399BH         LINE#         146
  C:399BH         LINE#         147
  C:39CEH         LINE#         148
  C:39D1H         LINE#         149
  C:39F7H         LINE#         150
  C:39FAH         LINE#         151
  C:39FAH         LINE#         153
  C:39FAH         LINE#         154
  -------         ENDPROC       _TM16XX_SHOW_NUM
  -------         PROC          _TM16XX_SHOW_HEX
  D:0004H         SYMBOL        num
  C:4583H         LINE#         161
  C:4587H         LINE#         162
  C:4587H         LINE#         163
  C:45A4H         LINE#         164
  C:45A7H         LINE#         165
  C:45D5H         LINE#         166
  C:45D8H         LINE#         168
  C:45F8H         LINE#         169
  C:45FBH         LINE#         170
  C:4619H         LINE#         171
  C:461CH         LINE#         172
  -------         ENDPROC       _TM16XX_SHOW_HEX
  -------         PROC          _TM16XX_SHOW_3_NUM
  D:0007H         SYMBOL        num
  C:537CH         LINE#         179
BL51 BANKED LINKER/LOCATER V6.22                                                      08/31/2022  18:11:48  PAGE 61


  C:537CH         LINE#         180
  C:537CH         LINE#         181
  C:5381H         LINE#         182
  C:5383H         LINE#         183
  C:5399H         LINE#         184
  C:539CH         LINE#         185
  C:539FH         LINE#         186
  C:53A1H         LINE#         187
  C:53A3H         LINE#         188
  C:53A5H         LINE#         189
  -------         ENDPROC       _TM16XX_SHOW_3_NUM
  -------         PROC          _TM16XX_SHOW_STALL
  D:0005H         SYMBOL        stall
  C:2C6AH         LINE#         197
  C:2C6CH         LINE#         198
  C:2C6CH         LINE#         199
  C:2C6FH         LINE#         200
  C:2C6FH         LINE#         201
  C:2C76H         LINE#         202
  C:2C7BH         LINE#         203
  C:2C80H         LINE#         204
  C:2C85H         LINE#         206
  C:2C8CH         LINE#         207
  C:2C91H         LINE#         208
  C:2C98H         LINE#         209
  C:2C9FH         LINE#         210
  C:2CA6H         LINE#         211
  C:2CADH         LINE#         212
  C:2CB4H         LINE#         213
  C:2CBBH         LINE#         214
  C:2CC2H         LINE#         215
  C:2CC9H         LINE#         216
  C:2CC9H         LINE#         217
  C:2CF7H         LINE#         218
  C:2CF7H         LINE#         219
  C:2CFEH         LINE#         220
  C:2D03H         LINE#         221
  C:2D08H         LINE#         222
  C:2D0DH         LINE#         224
  C:2D14H         LINE#         225
  C:2D19H         LINE#         226
  C:2D20H         LINE#         227
  C:2D27H         LINE#         228
  C:2D2EH         LINE#         229
  C:2D35H         LINE#         230
  C:2D3CH         LINE#         231
  C:2D43H         LINE#         232
  C:2D4AH         LINE#         233
  C:2D52H         LINE#         234
  C:2D52H         LINE#         235
  C:2D59H         LINE#         236
  C:2D5EH         LINE#         237
  C:2D62H         LINE#         238
  C:2D62H         LINE#         239
  C:2D64H         LINE#         241
  C:2D6BH         LINE#         242
  C:2D70H         LINE#         243
BL51 BANKED LINKER/LOCATER V6.22                                                      08/31/2022  18:11:48  PAGE 62


  C:2D74H         LINE#         244
  C:2D74H         LINE#         245
  C:2D76H         LINE#         247
  C:2D7DH         LINE#         248
  C:2D82H         LINE#         249
  C:2D86H         LINE#         250
  C:2D86H         LINE#         251
  C:2D88H         LINE#         253
  C:2D8FH         LINE#         254
  C:2D94H         LINE#         255
  C:2D99H         LINE#         256
  C:2D9AH         LINE#         257
  C:2D9DH         LINE#         259
  C:2DA4H         LINE#         260
  C:2DA9H         LINE#         261
  C:2DAEH         LINE#         262
  C:2DB3H         LINE#         264
  C:2DBAH         LINE#         265
  C:2DBFH         LINE#         266
  C:2DC6H         LINE#         267
  C:2DC9H         LINE#         268
  C:2DCCH         LINE#         270
  C:2DD3H         LINE#         271
  C:2DD8H         LINE#         272
  C:2DDDH         LINE#         273
  C:2DE2H         LINE#         275
  C:2DE9H         LINE#         276
  C:2DEEH         LINE#         277
  C:2DF5H         LINE#         278
  C:2DFCH         LINE#         279
  C:2E03H         LINE#         280
  C:2E06H         LINE#         281
  C:2E09H         LINE#         283
  C:2E10H         LINE#         284
  C:2E15H         LINE#         285
  C:2E1AH         LINE#         286
  C:2E1FH         LINE#         288
  C:2E26H         LINE#         289
  C:2E2BH         LINE#         290
  C:2E32H         LINE#         291
  C:2E39H         LINE#         292
  C:2E40H         LINE#         293
  C:2E47H         LINE#         294
  C:2E4EH         LINE#         295
  C:2E51H         LINE#         296
  C:2E53H         LINE#         298
  C:2E5AH         LINE#         299
  C:2E5FH         LINE#         300
  C:2E64H         LINE#         301
  C:2E69H         LINE#         303
  C:2E70H         LINE#         304
  C:2E75H         LINE#         305
  C:2E7CH         LINE#         306
  C:2E83H         LINE#         307
  C:2E8AH         LINE#         308
  C:2E91H         LINE#         309
  C:2E98H         LINE#         310
BL51 BANKED LINKER/LOCATER V6.22                                                      08/31/2022  18:11:48  PAGE 63


  C:2E9FH         LINE#         311
  C:2EA6H         LINE#         312
  C:2EA9H         LINE#         313
  C:2EA9H         LINE#         314
  C:2EADH         LINE#         329
  C:2EAEH         LINE#         330
  C:2EAEH         LINE#         331
  C:2EAEH         LINE#         332
  -------         ENDPROC       _TM16XX_SHOW_STALL
  -------         PROC          TM16XX_CLSER
  -------         DO            
  X:02BDH         SYMBOL        i
  -------         ENDDO         
  C:548FH         LINE#         340
  C:548FH         LINE#         341
  C:548FH         LINE#         343
  C:549EH         LINE#         344
  C:549EH         LINE#         345
  C:54AAH         LINE#         346
  C:54B2H         LINE#         347
  -------         ENDPROC       TM16XX_CLSER
  -------         PROC          TM16XX_ALL_SHOW
  -------         DO            
  X:02BEH         SYMBOL        i
  -------         ENDDO         
  C:546AH         LINE#         354
  C:546AH         LINE#         355
  C:546AH         LINE#         357
  C:5479H         LINE#         358
  C:5479H         LINE#         359
  C:5486H         LINE#         360
  C:548EH         LINE#         361
  -------         ENDPROC       TM16XX_ALL_SHOW
  -------         PROC          _TM16XX_SHOW_NUM_STALL
  D:0006H         SYMBOL        num
  D:0001H         SYMBOL        stall
  C:5897H         LINE#         368
  C:5899H         LINE#         369
  C:5899H         LINE#         370
  C:589CH         LINE#         371
  -------         ENDPROC       _TM16XX_SHOW_NUM_STALL
  -------         PROC          TM16XX_SHOW_COLON
  C:57B8H         LINE#         379
  C:57B8H         LINE#         380
  C:57B8H         LINE#         381
  C:57BEH         LINE#         382
  C:57BEH         LINE#         383
  C:57C0H         LINE#         384
  C:57C1H         LINE#         386
  C:57C1H         LINE#         387
  C:57C7H         LINE#         388
  C:57C7H         LINE#         389
  -------         ENDPROC       TM16XX_SHOW_COLON
  -------         ENDMOD        TM16XX

  -------         MODULE        EEPROM
  C:0000H         SYMBOL        _ICE_DUMMY_
BL51 BANKED LINKER/LOCATER V6.22                                                      08/31/2022  18:11:48  PAGE 64


  D:00F3H         PUBLIC        IB_CON2
  C:5154H         PUBLIC        _eeprom_erase
  D:0080H         PUBLIC        P0
  D:00F4H         PUBLIC        IB_CON3
  D:0090H         PUBLIC        P1
  D:00F5H         PUBLIC        IB_CON4
  D:00A0H         PUBLIC        P2
  D:00F6H         PUBLIC        IB_CON5
  D:00B0H         PUBLIC        P3
  D:00C0H         PUBLIC        P4
  D:0080H         PUBLIC        P5
  B:00A8H.7       PUBLIC        EA
  D:00FCH         PUBLIC        IB_DATA
  X:0304H         PUBLIC        eeprom
  X:0306H         PUBLIC        eeprom_para
  C:444BH         PUBLIC        read_para_block
  C:49D9H         PUBLIC        _eeprom_write
  C:5039H         PUBLIC        _read_e2_bytes
  C:5081H         PUBLIC        _read_e3_bytes
  C:4D81H         PUBLIC        save_para_block
  C:55EFH         PUBLIC        _write_e2_bytes
  C:560CH         PUBLIC        _write_e3_bytes
  D:00FBH         PUBLIC        IB_OFFSET
  D:00A7H         PUBLIC        FLASHCON
  X:0309H         PUBLIC        para_pos
  D:00F7H         PUBLIC        XPAGE
  D:00F2H         PUBLIC        IB_CON1
  -------         PROC          _EEPROM_ERASE
  D:0007H         SYMBOL        n
  -------         DO            
  B:0022H.6       SYMBOL        ea_f
  -------         ENDDO         
  C:5154H         LINE#         24
  C:5154H         LINE#         25
  C:5154H         LINE#         28
  C:5158H         LINE#         30
  C:515AH         LINE#         31
  C:515DH         LINE#         33
  C:5160H         LINE#         34
  C:5163H         LINE#         35
  C:5166H         LINE#         36
  C:5169H         LINE#         38
  C:5170H         LINE#         39
  C:5170H         LINE#         40
  C:5175H         LINE#         41
  C:5178H         LINE#         42
  C:5179H         LINE#         43
  C:517AH         LINE#         44
  C:517BH         LINE#         45
  C:517CH         LINE#         46
  C:517CH         LINE#         48
  C:5181H         LINE#         50
  C:5183H         LINE#         51
  C:5185H         LINE#         52
  C:5187H         LINE#         53
  C:5189H         LINE#         54
  C:518BH         LINE#         55
BL51 BANKED LINKER/LOCATER V6.22                                                      08/31/2022  18:11:48  PAGE 65


  C:518DH         LINE#         57
  C:518FH         LINE#         58
  C:5193H         LINE#         59
  -------         ENDPROC       _EEPROM_ERASE
  -------         PROC          _EEPROM_WRITE
  X:02A9H         SYMBOL        src
  D:0005H         SYMBOL        len
  X:02ADH         SYMBOL        addr
  -------         DO            
  D:0004H         SYMBOL        i
  B:0022H.6       SYMBOL        ea_f
  -------         ENDDO         
  C:49D9H         LINE#         66
  C:49E4H         LINE#         67
  C:49E4H         LINE#         71
  C:49E8H         LINE#         73
  C:49EAH         LINE#         74
  C:49EDH         LINE#         76
  C:49F4H         LINE#         77
  C:49F4H         LINE#         78
  C:49FDH         LINE#         79
  C:4A00H         LINE#         80
  C:4A15H         LINE#         82
  C:4A18H         LINE#         83
  C:4A1BH         LINE#         84
  C:4A1EH         LINE#         85
  C:4A21H         LINE#         87
  C:4A28H         LINE#         88
  C:4A28H         LINE#         89
  C:4A2BH         LINE#         90
  C:4A2CH         LINE#         91
  C:4A2DH         LINE#         92
  C:4A2EH         LINE#         93
  C:4A2FH         LINE#         94
  C:4A2FH         LINE#         96
  C:4A2FH         LINE#         98
  C:4A3DH         LINE#         99
  C:4A40H         LINE#         101
  C:4A45H         LINE#         103
  C:4A47H         LINE#         104
  C:4A49H         LINE#         105
  C:4A4BH         LINE#         106
  C:4A4DH         LINE#         107
  C:4A4FH         LINE#         108
  C:4A51H         LINE#         110
  C:4A53H         LINE#         111
  C:4A57H         LINE#         112
  -------         ENDPROC       _EEPROM_WRITE
  -------         PROC          SAVE_PARA_BLOCK
  C:4D81H         LINE#         119
  C:4D81H         LINE#         120
  C:4D81H         LINE#         121
  C:4D87H         LINE#         122
  C:4D8CH         LINE#         124
  C:4DA3H         LINE#         126
  C:4DBAH         LINE#         128
  C:4DCBH         LINE#         130
BL51 BANKED LINKER/LOCATER V6.22                                                      08/31/2022  18:11:48  PAGE 66


  C:4DD1H         LINE#         131
  -------         ENDPROC       SAVE_PARA_BLOCK
  -------         PROC          READ_PARA_BLOCK
  -------         DO            
  D:0006H         SYMBOL        j
  D:0007H         SYMBOL        len
  X:02A6H         SYMBOL        check_sum
  X:02A7H         SYMBOL        ptr
  X:02A9H         SYMBOL        para
  -------         ENDDO         
  C:444BH         LINE#         134
  C:444BH         LINE#         135
  C:444BH         LINE#         136
  C:444DH         LINE#         137
  C:4452H         LINE#         139
  C:4458H         LINE#         140
  C:4464H         LINE#         142
  C:4467H         LINE#         143
  C:446EH         LINE#         144
  C:4497H         LINE#         145
  C:449AH         LINE#         147
  -------         ENDPROC       READ_PARA_BLOCK
  -------         PROC          _WRITE_E2_BYTES
  D:0001H         SYMBOL        src
  D:0005H         SYMBOL        len
  C:55EFH         LINE#         155
  C:55EFH         LINE#         156
  C:55EFH         LINE#         157
  C:55F5H         LINE#         158
  C:55FAH         LINE#         160
  C:5600H         LINE#         161
  -------         ENDPROC       _WRITE_E2_BYTES
  -------         PROC          _READ_E2_BYTES
  X:02A6H         SYMBOL        dst
  D:0005H         SYMBOL        len
  -------         DO            
  D:0007H         SYMBOL        j
  X:02A9H         SYMBOL        ptr
  -------         ENDDO         
  C:5039H         LINE#         164
  C:5044H         LINE#         165
  C:5044H         LINE#         168
  C:504BH         LINE#         170
  C:504EH         LINE#         171
  C:5054H         LINE#         172
  C:507DH         LINE#         173
  C:5080H         LINE#         174
  -------         ENDPROC       _READ_E2_BYTES
  -------         PROC          _WRITE_E3_BYTES
  D:0001H         SYMBOL        src
  D:0005H         SYMBOL        len
  C:560CH         LINE#         181
  C:560CH         LINE#         182
  C:560CH         LINE#         183
  C:5612H         LINE#         184
  C:5617H         LINE#         186
  C:561DH         LINE#         187
BL51 BANKED LINKER/LOCATER V6.22                                                      08/31/2022  18:11:48  PAGE 67


  -------         ENDPROC       _WRITE_E3_BYTES
  -------         PROC          _READ_E3_BYTES
  X:02A6H         SYMBOL        dst
  D:0005H         SYMBOL        len
  -------         DO            
  D:0007H         SYMBOL        j
  X:02A9H         SYMBOL        ptr
  -------         ENDDO         
  C:5081H         LINE#         190
  C:508CH         LINE#         191
  C:508CH         LINE#         194
  C:5093H         LINE#         196
  C:5096H         LINE#         197
  C:509CH         LINE#         198
  C:50C5H         LINE#         199
  C:50C8H         LINE#         200
  -------         ENDPROC       _READ_E3_BYTES
  -------         ENDMOD        EEPROM

  -------         MODULE        SINO_TK_ISR
  C:0000H         SYMBOL        _ICE_DUMMY_
  C:584AH         PUBLIC        tk_resetChk
  X:0000H         PUBLIC        key_threshold
  D:0080H         PUBLIC        P0
  D:0090H         PUBLIC        P1
  D:00A0H         PUBLIC        P2
  B:0020H.0       PUBLIC        Duijiangji_flag
  D:00B0H         PUBLIC        P3
  D:00C0H         PUBLIC        P4
  X:0002H         PUBLIC        key_count_sub
  D:0080H         PUBLIC        P5
  X:0004H         PUBLIC        CSI_cnt
  B:0020H.1       PUBLIC        TK_Count_Over_flag
  C:58C3H         PUBLIC        Rst_WDT
  X:0005H         PUBLIC        STcnt_Two
  X:0007H         PUBLIC        R_DATA_RAM_ADDR
  D:00A8H         PUBLIC        IEN0
  X:0009H         PUBLIC        sino_key_value_pre
  X:000DH         PUBLIC        tk_num
  C:3DA6H         PUBLIC        Tab_Chn
  X:000EH         PUBLIC        multikey_control2
  B:0020H.2       PUBLIC        TK_going_flag
  X:000FH         PUBLIC        R_downCnt
  X:0010H         PUBLIC        multikey_control3
  D:00C7H         PUBLIC        TKF0
  D:00E1H         PUBLIC        P0CR
  D:00E2H         PUBLIC        P1CR
  X:0011H         PUBLIC        Add_Set
  D:00E5H         PUBLIC        P4CR
  B:0020H.3       PUBLIC        key_tkst_flag_pre
  D:00E1H         PUBLIC        P5CR
  B:0020H.4       PUBLIC        LED_Start_TK_Going_flag
  X:0012H         PUBLIC        R_maxlimit
  B:0020H.5       PUBLIC        tk_init_req
  X:0013H         PUBLIC        HF_key_filter
  D:00C9H         PUBLIC        TKU1
  D:00BCH         PUBLIC        P0SS
BL51 BANKED LINKER/LOCATER V6.22                                                      08/31/2022  18:11:48  PAGE 68


  D:00CAH         PUBLIC        TKU2
  D:00BDH         PUBLIC        P1SS
  D:00CBH         PUBLIC        TKU3
  X:0033H         PUBLIC        LF_key_count_fastsub
  X:0043H         PUBLIC        LF_key_filter
  C:3E76H         PUBLIC        key_threshold_per
  X:0063H         PUBLIC        line
  D:00BEH         PUBLIC        P4SS
  D:00BFH         PUBLIC        P5SS
  X:0064H         PUBLIC        nake_count
  X:0074H         PUBLIC        key_stablecounter
  C:58BFH         PUBLIC        TK_start
  X:0075H         PUBLIC        key_stablecNT
  D:00C1H         PUBLIC        TKCON1
  B:0020H.6       PUBLIC        fre_switch_flag
  X:0095H         PUBLIC        normal_jitter_set
  X:0096H         PUBLIC        stable_limit1
  X:0097H         PUBLIC        key_count_fastsub
  X:0099H         PUBLIC        key_filter
  X:009BH         PUBLIC        FLAG_COUNT_set
  D:00B1H         PUBLIC        RSTSTAT
  X:009CH         PUBLIC        HF_stblecount
  X:00ACH         PUBLIC        HF_key
  X:00CCH         PUBLIC        LF_key_flag
  X:00DCH         PUBLIC        LF_key
  X:00FCH         PUBLIC        LF_stblecount
  X:010CH         PUBLIC        key_sample_count
  C:51D3H         PUBLIC        tk_samp_fre_set
  X:010DH         PUBLIC        nakevalue
  B:0020H.7       PUBLIC        tkst_flag
  X:010FH         PUBLIC        R_downCnt2
  D:00CFH         PUBLIC        TKST
  X:0110H         PUBLIC        key_flag
  X:0112H         PUBLIC        dataplus_counter
  X:0113H         PUBLIC        stblecount
  X:0115H         PUBLIC        key
  C:3E36H         PUBLIC        Tab_HF_DIV
  D:0086H         PUBLIC        INSCON
  C:34D7H         PUBLIC        _EnIO
  B:0021H.0       PUBLIC        tk_adjust_flag
  X:0117H         PUBLIC        datasub_counter
  C:3E86H         PUBLIC        isr_TK
  C:3E56H         PUBLIC        Tab_LF_DIV
  B:0021H.1       PUBLIC        f_tkErr
  D:00CEH         PUBLIC        TKVREF
  X:0118H         PUBLIC        Dui_num
  X:0119H         PUBLIC        HF_key_filter2
  X:0139H         PUBLIC        Add_function
  C:5695H         PUBLIC        init_tkErrchk
  X:013AH         PUBLIC        LF_key_filter2
  X:015AH         PUBLIC        HF_baseline_plus_flag
  B:0021H.2       PUBLIC        CSI_flag
  B:0021H.3       PUBLIC        TK_GO_ERR_flag
  X:016AH         PUBLIC        HF_keytouch_flag
  X:016EH         PUBLIC        LF_baseline_plus_flag
  X:017EH         PUBLIC        multikey_control
  C:57C8H         PUBLIC        DisTk
BL51 BANKED LINKER/LOCATER V6.22                                                      08/31/2022  18:11:48  PAGE 69


  X:017FH         PUBLIC        LF_keytouch_flag
  C:3DB6H         PUBLIC        HF_key_max
  X:0183H         PUBLIC        key_fastcounter
  X:0184H         PUBLIC        HF_key_baseline
  X:01A4H         PUBLIC        L_Inter1
  D:00C2H         PUBLIC        TKRANDOM
  X:01A5H         PUBLIC        L_Inter2
  X:01A6H         PUBLIC        DuiReaCnt
  D:00C3H         PUBLIC        TKDIV01
  C:3DF6H         PUBLIC        LF_key_max
  D:00C4H         PUBLIC        TKDIV02
  X:01A7H         PUBLIC        LF_key_baseline
  D:00C5H         PUBLIC        TKDIV03
  X:01C7H         PUBLIC        key_filter2
  X:01C9H         PUBLIC        sino_key_value
  D:00C6H         PUBLIC        TKDIV04
  X:01CDH         PUBLIC        init_BaseCnt_set
  X:01CEH         PUBLIC        baseline_plus_flag
  C:3DD6H         PUBLIC        HF_key_threshold
  B:0021H.4       PUBLIC        tkst_flag_pre
  X:01D0H         PUBLIC        keytouch_flag
  B:0021H.5       PUBLIC        key_tkst_flag
  C:3E16H         PUBLIC        LF_key_threshold
  X:01D2H         PUBLIC        key_max
  X:01D4H         PUBLIC        HF_key_count_sub
  X:01E4H         PUBLIC        STcnt_One
  C:35F2H         PUBLIC        _EnTk
  X:01E6H         PUBLIC        key_baseline
  D:0008H         PUBLIC        HF_CSI_cnt
  X:01E8H         PUBLIC        R_nakelimit
  X:01EAH         PUBLIC        LF_key_count_sub
  B:0021H.6       PUBLIC        TK_Data_Over_flag
  D:0009H         PUBLIC        LF_CSI_cnt
  B:0021H.7       PUBLIC        TK_Scan_End_flag
  C:3238H         PUBLIC        tk_para_init
  X:01FAH         PUBLIC        key_tkerrCnt
  -------         PROC          ISR_TK
  C:3E86H         LINE#         100
  C:3EA3H         LINE#         102
  C:3EA5H         LINE#         103
  C:3EA8H         LINE#         104
  C:3EADH         LINE#         105
  C:3EADH         LINE#         106
  C:3EB0H         LINE#         107
  C:3EB6H         LINE#         108
  C:3EBDH         LINE#         109
  C:3EBDH         LINE#         110
  C:3EBFH         LINE#         111
  C:3EC5H         LINE#         112
  C:3EC7H         LINE#         113
  C:3EC9H         LINE#         115
  C:3EC9H         LINE#         116
  C:3ECCH         LINE#         117
  C:3ECCH         LINE#         118
  C:3ECFH         LINE#         119
  C:3ED9H         LINE#         120
  C:3ED9H         LINE#         121
BL51 BANKED LINKER/LOCATER V6.22                                                      08/31/2022  18:11:48  PAGE 70


  C:3EDBH         LINE#         123
  C:3EDBH         LINE#         124
  C:3EDEH         LINE#         125
  C:3EF7H         LINE#         126
  C:3EF9H         LINE#         127
  C:3EF9H         LINE#         128
  C:3EFCH         LINE#         129
  C:3EFFH         LINE#         130
  C:3F02H         LINE#         131
  C:3F02H         LINE#         132
  C:3F04H         LINE#         134
  C:3F04H         LINE#         135
  C:3F07H         LINE#         136
  C:3F07H         LINE#         137
  C:3F15H         LINE#         138
  C:3F15H         LINE#         139
  C:3F1AH         LINE#         140
  C:3F1AH         LINE#         141
  C:3F1CH         LINE#         142
  C:3F1EH         LINE#         143
  C:3F20H         LINE#         145
  C:3F20H         LINE#         146
  C:3F25H         LINE#         147
  C:3F25H         LINE#         148
  C:3F27H         LINE#         149
  C:3F29H         LINE#         150
  C:3F2BH         LINE#         152
  C:3F2BH         LINE#         153
  C:3F30H         LINE#         154
  C:3F30H         LINE#         155
  C:3F32H         LINE#         156
  C:3F34H         LINE#         157
  C:3F34H         LINE#         158
  C:3F34H         LINE#         159
  C:3F34H         LINE#         160
  C:3F37H         LINE#         161
  C:3F37H         LINE#         163
  C:3F39H         LINE#         164
  -------         ENDPROC       ISR_TK
  -------         PROC          TK_PARA_INIT
  -------         DO            
  X:02A6H         SYMBOL        i
  -------         ENDDO         
  C:3238H         LINE#         836
  C:3238H         LINE#         837
  C:3238H         LINE#         839
  C:323EH         LINE#         840
  C:3240H         LINE#         841
  C:3242H         LINE#         842
  C:3244H         LINE#         843
  C:3246H         LINE#         845
  C:3250H         LINE#         846
  C:325AH         LINE#         847
  C:3264H         LINE#         848
  C:326EH         LINE#         849
  C:3278H         LINE#         851
  C:3282H         LINE#         852
BL51 BANKED LINKER/LOCATER V6.22                                                      08/31/2022  18:11:48  PAGE 71


  C:328CH         LINE#         853
  C:3296H         LINE#         854
  C:32A0H         LINE#         855
  C:32A4H         LINE#         857
  C:32AEH         LINE#         858
  C:32B4H         LINE#         859
  C:32BAH         LINE#         860
  C:32BEH         LINE#         861
  C:32C2H         LINE#         862
  C:32C6H         LINE#         863
  C:32CCH         LINE#         864
  C:32D0H         LINE#         865
  C:32D4H         LINE#         866
  C:32DAH         LINE#         867
  C:32E4H         LINE#         868
  C:32EEH         LINE#         869
  C:32F4H         LINE#         870
  C:32FAH         LINE#         871
  C:3300H         LINE#         872
  C:330AH         LINE#         873
  C:3310H         LINE#         874
  C:3316H         LINE#         875
  C:331CH         LINE#         876
  C:3322H         LINE#         877
  C:3328H         LINE#         879
  C:3331H         LINE#         880
  C:3333H         LINE#         881
  C:3335H         LINE#         882
  C:3339H         LINE#         883
  C:3343H         LINE#         885
  C:3352H         LINE#         886
  C:3352H         LINE#         887
  C:335BH         LINE#         888
  C:3363H         LINE#         889
  C:336CH         LINE#         890
  C:336FH         LINE#         892
  C:3372H         LINE#         893
  C:337AH         LINE#         894
  C:337DH         LINE#         899
  C:3380H         LINE#         900
  C:3383H         LINE#         901
  C:3386H         LINE#         902
  C:3389H         LINE#         906
  C:338CH         LINE#         908
  C:338FH         LINE#         921
  C:3397H         LINE#         922
  C:339FH         LINE#         923
  C:33A2H         LINE#         924
  C:33A5H         LINE#         927
  -------         ENDPROC       TK_PARA_INIT
  -------         PROC          L?0091
  -------         ENDPROC       L?0091
  -------         PROC          _ENTK
  D:0007H         SYMBOL        n
  C:35F2H         LINE#         978
  C:35F2H         LINE#         979
  C:35F2H         LINE#         980
BL51 BANKED LINKER/LOCATER V6.22                                                      08/31/2022  18:11:48  PAGE 72


  C:364AH         LINE#         981
  C:364AH         LINE#         982
  C:3651H         LINE#         983
  C:3658H         LINE#         984
  C:365FH         LINE#         985
  C:3666H         LINE#         986
  C:366DH         LINE#         987
  C:3674H         LINE#         988
  C:367BH         LINE#         989
  C:3682H         LINE#         991
  C:3689H         LINE#         992
  C:3690H         LINE#         993
  C:3697H         LINE#         994
  C:369EH         LINE#         995
  C:36A5H         LINE#         996
  C:36ACH         LINE#         997
  C:36B3H         LINE#         999
  C:36BAH         LINE#         1000
  C:36C1H         LINE#         1001
  C:36C8H         LINE#         1002
  C:36CFH         LINE#         1003
  C:36D6H         LINE#         1004
  C:36DDH         LINE#         1005
  C:36E4H         LINE#         1006
  C:36EBH         LINE#         1007
  C:36F1H         LINE#         1008
  C:36F1H         LINE#         1009
  -------         ENDPROC       _ENTK
  -------         PROC          _ENIO
  D:0007H         SYMBOL        n
  C:34D7H         LINE#         1059
  C:34D7H         LINE#         1060
  C:34D7H         LINE#         1061
  C:352FH         LINE#         1062
  C:352FH         LINE#         1063
  C:3536H         LINE#         1064
  C:353DH         LINE#         1065
  C:3544H         LINE#         1066
  C:354BH         LINE#         1067
  C:3552H         LINE#         1068
  C:3559H         LINE#         1069
  C:3560H         LINE#         1070
  C:3567H         LINE#         1071
  C:356EH         LINE#         1072
  C:3575H         LINE#         1073
  C:357CH         LINE#         1074
  C:3583H         LINE#         1075
  C:358AH         LINE#         1076
  C:3591H         LINE#         1077
  C:3598H         LINE#         1078
  C:35A3H         LINE#         1079
  C:35AEH         LINE#         1080
  C:35B9H         LINE#         1081
  C:35C6H         LINE#         1082
  C:35CDH         LINE#         1083
  C:35D4H         LINE#         1084
  C:35DBH         LINE#         1085
BL51 BANKED LINKER/LOCATER V6.22                                                      08/31/2022  18:11:48  PAGE 73


  C:35E2H         LINE#         1086
  C:35E8H         LINE#         1087
  C:35E8H         LINE#         1088
  -------         ENDPROC       _ENIO
  -------         PROC          DISTK
  C:57C8H         LINE#         1113
  C:57C8H         LINE#         1114
  C:57C8H         LINE#         1115
  C:57CBH         LINE#         1116
  C:57CDH         LINE#         1117
  C:57CFH         LINE#         1119
  C:57D1H         LINE#         1121
  C:57D3H         LINE#         1122
  C:57D5H         LINE#         1123
  C:57D7H         LINE#         1124
  -------         ENDPROC       DISTK
  -------         PROC          TK_SAMP_FRE_SET
  C:51D3H         LINE#         1131
  C:51D3H         LINE#         1132
  C:51D3H         LINE#         1133
  C:51D6H         LINE#         1134
  C:51D8H         LINE#         1136
  C:51DBH         LINE#         1137
  C:51DEH         LINE#         1138
  C:51E1H         LINE#         1139
  C:51E1H         LINE#         1140
  C:51E4H         LINE#         1141
  C:51F1H         LINE#         1142
  C:51F1H         LINE#         1143
  C:51F3H         LINE#         1145
  C:51F3H         LINE#         1146
  C:51F6H         LINE#         1147
  C:520FH         LINE#         1148
  C:5211H         LINE#         1149
  C:5211H         LINE#         1150
  -------         ENDPROC       TK_SAMP_FRE_SET
  -------         PROC          TK_START
  C:58BFH         LINE#         1152
  C:58BFH         LINE#         1153
  C:58BFH         LINE#         1154
  C:58C2H         LINE#         1155
  -------         ENDPROC       TK_START
  -------         PROC          RST_WDT
  C:58C3H         LINE#         1156
  C:58C3H         LINE#         1157
  C:58C3H         LINE#         1158
  C:58C6H         LINE#         1159
  -------         ENDPROC       RST_WDT
  -------         PROC          INIT_TKERRCHK
  C:5695H         LINE#         1161
  C:5695H         LINE#         1162
  C:5695H         LINE#         1163
  C:56A4H         LINE#         1164
  C:56A4H         LINE#         1165
  C:56A6H         LINE#         1166
  C:56A8H         LINE#         1167
  C:56ADH         LINE#         1168
BL51 BANKED LINKER/LOCATER V6.22                                                      08/31/2022  18:11:48  PAGE 74


  C:56ADH         LINE#         1169
  -------         ENDPROC       INIT_TKERRCHK
  -------         PROC          TK_RESETCHK
  C:584AH         LINE#         1171
  C:584AH         LINE#         1172
  C:584AH         LINE#         1173
  C:584DH         LINE#         1174
  C:584DH         LINE#         1175
  C:5850H         LINE#         1176
  C:5850H         LINE#         1177
  C:5853H         LINE#         1178
  C:5853H         LINE#         1179
  C:5855H         LINE#         1180
  C:5855H         LINE#         1181
  -------         ENDPROC       TK_RESETCHK
  -------         ENDMOD        SINO_TK_ISR

  -------         MODULE        SINO_TOUCHKEY
  C:0000H         SYMBOL        _ICE_DUMMY_
  C:3AF3H         PUBLIC        touchkeyinit
  C:5597H         PUBLIC        touchkey_go
  C:5351H         PUBLIC        Get_TK_Baseline
  C:0086H         PUBLIC        key_judge
  C:24D3H         PUBLIC        GetInitialTouchkeyData
  C:37F8H         PUBLIC        touchkey_samp_fre_set
  C:5645H         PUBLIC        Get_TK_States
  -------         PROC          TOUCHKEY_GO
  C:5597H         LINE#         19
  C:5597H         LINE#         20
  C:5597H         LINE#         21
  C:559AH         LINE#         22
  C:559AH         LINE#         23
  C:559CH         LINE#         24
  C:559EH         LINE#         25
  C:559EH         LINE#         26
  C:55A4H         LINE#         27
  C:55A4H         LINE#         29
  C:55A6H         LINE#         30
  C:55A8H         LINE#         31
  C:55AAH         LINE#         33
  C:55AAH         LINE#         34
  C:55ADH         LINE#         35
  C:55ADH         LINE#         36
  C:55AFH         LINE#         37
  C:55B1H         LINE#         38
  C:55B4H         LINE#         39
  C:55B4H         LINE#         40
  -------         ENDPROC       TOUCHKEY_GO
  -------         PROC          GET_TK_STATES
  C:5645H         LINE#         44
  C:5645H         LINE#         45
  C:5645H         LINE#         46
  C:5648H         LINE#         47
  C:564BH         LINE#         48
  C:564BH         LINE#         49
  C:564DH         LINE#         50
  C:564FH         LINE#         52
BL51 BANKED LINKER/LOCATER V6.22                                                      08/31/2022  18:11:48  PAGE 75


  C:5652H         LINE#         53
  C:5652H         LINE#         54
  C:5655H         LINE#         55
  C:5657H         LINE#         57
  C:5657H         LINE#         58
  C:565AH         LINE#         59
  C:565AH         LINE#         60
  C:565DH         LINE#         61
  C:5660H         LINE#         62
  C:5660H         LINE#         63
  -------         ENDPROC       GET_TK_STATES
  -------         PROC          GET_TK_BASELINE
  C:5351H         LINE#         67
  C:5351H         LINE#         68
  C:5351H         LINE#         69
  C:5353H         LINE#         70
  C:5356H         LINE#         71
  C:5356H         LINE#         72
  C:5359H         LINE#         73
  C:535CH         LINE#         74
  C:535CH         LINE#         75
  C:535EH         LINE#         76
  C:5360H         LINE#         77
  C:5363H         LINE#         78
  C:5366H         LINE#         79
  C:5366H         LINE#         80
  C:5369H         LINE#         81
  C:5369H         LINE#         82
  C:536BH         LINE#         84
  C:536EH         LINE#         85
  C:536EH         LINE#         86
  C:5371H         LINE#         87
  C:5371H         LINE#         88
  C:5371H         LINE#         89
  C:5374H         LINE#         90
  C:5376H         LINE#         91
  C:5379H         LINE#         92
  C:537BH         LINE#         93
  -------         ENDPROC       GET_TK_BASELINE
  -------         PROC          TOUCHKEY_SAMP_FRE_SET
  C:37F8H         LINE#         99
  C:37F8H         LINE#         100
  C:37F8H         LINE#         102
  C:3801H         LINE#         103
  C:3801H         LINE#         104
  C:3808H         LINE#         105
  C:3812H         LINE#         106
  C:381CH         LINE#         107
  C:3826H         LINE#         108
  C:3830H         LINE#         110
  C:383AH         LINE#         111
  C:3844H         LINE#         112
  C:384EH         LINE#         113
  C:3858H         LINE#         114
  C:3862H         LINE#         115
  C:386CH         LINE#         116
  C:3876H         LINE#         117
BL51 BANKED LINKER/LOCATER V6.22                                                      08/31/2022  18:11:48  PAGE 76


  C:387CH         LINE#         118
  C:387EH         LINE#         120
  C:387EH         LINE#         121
  C:3885H         LINE#         122
  C:388FH         LINE#         123
  C:3899H         LINE#         124
  C:38A3H         LINE#         125
  C:38ADH         LINE#         127
  C:38B7H         LINE#         128
  C:38C1H         LINE#         130
  C:38CBH         LINE#         131
  C:38D5H         LINE#         132
  C:38DFH         LINE#         133
  C:38E9H         LINE#         134
  C:38F3H         LINE#         135
  C:38F9H         LINE#         136
  C:38F9H         LINE#         137
  -------         ENDPROC       TOUCHKEY_SAMP_FRE_SET
  -------         PROC          GETINITIALTOUCHKEYDATA
  -------         DO            
  X:02A6H         SYMBOL        i
  X:02A7H         SYMBOL        k
  X:02A8H         SYMBOL        p
  X:02AAH         SYMBOL        pi
  -------         ENDDO         
  C:24D3H         LINE#         144
  C:24D3H         LINE#         145
  C:24D3H         LINE#         149
  C:24D9H         LINE#         150
  C:24D9H         LINE#         151
  C:24DBH         LINE#         152
  C:24DDH         LINE#         153
  C:24E0H         LINE#         154
  C:24E5H         LINE#         155
  C:24E8H         LINE#         157
  C:24E8H         LINE#         158
  C:24F7H         LINE#         159
  C:24F7H         LINE#         160
  C:2506H         LINE#         161
  C:251CH         LINE#         162
  C:251CH         LINE#         163
  C:2527H         LINE#         164
  C:2540H         LINE#         165
  C:2558H         LINE#         166
  C:2574H         LINE#         167
  C:2591H         LINE#         168
  C:25A2H         LINE#         169
  C:25C5H         LINE#         170
  C:25D6H         LINE#         171
  C:25F9H         LINE#         172
  C:260AH         LINE#         173
  C:2613H         LINE#         174
  C:2615H         LINE#         175
  C:2617H         LINE#         176
  C:261AH         LINE#         177
  C:261DH         LINE#         179
  C:261DH         LINE#         180
BL51 BANKED LINKER/LOCATER V6.22                                                      08/31/2022  18:11:48  PAGE 77


  C:2639H         LINE#         181
  C:2639H         LINE#         183
  C:2648H         LINE#         184
  C:265EH         LINE#         185
  C:265EH         LINE#         186
  C:2669H         LINE#         187
  C:2682H         LINE#         188
  C:269AH         LINE#         189
  C:26B6H         LINE#         191
  C:26D3H         LINE#         192
  C:26E4H         LINE#         193
  C:2707H         LINE#         194
  C:2718H         LINE#         195
  C:273BH         LINE#         196
  C:274CH         LINE#         197
  C:2755H         LINE#         198
  C:275BH         LINE#         199
  C:275DH         LINE#         200
  C:275DH         LINE#         201
  C:275DH         LINE#         202
  C:275DH         LINE#         203
  C:2763H         LINE#         204
  -------         ENDPROC       GETINITIALTOUCHKEYDATA
  -------         PROC          KEY_JUDGE
  -------         DO            
  X:02A6H         SYMBOL        pi
  X:02A8H         SYMBOL        p
  X:02AAH         SYMBOL        i
  X:02ABH         SYMBOL        k
  X:02ACH         SYMBOL        temp
  X:02AEH         SYMBOL        key_buf
  X:02B0H         SYMBOL        touchnumber
  X:02B1H         SYMBOL        longtemp
  X:02B5H         SYMBOL        key_datatemp
  B:0022H.6       SYMBOL        Slope_Limit_flag
  X:02B9H         SYMBOL        rcnt1
  X:02BAH         SYMBOL        rcnt2
  -------         ENDDO         
  C:0086H         LINE#         210
  C:0086H         LINE#         211
  C:0086H         LINE#         226
  C:0090H         LINE#         227
  C:0090H         LINE#         228
  C:0095H         LINE#         229
  C:0097H         LINE#         230
  C:00ABH         LINE#         231
  C:00ABH         LINE#         232
  C:00EBH         LINE#         233
  C:0111H         LINE#         235
  C:0156H         LINE#         236
  C:0199H         LINE#         237
  C:019EH         LINE#         238
  C:01DAH         LINE#         239
  C:01E0H         LINE#         240
  C:01E9H         LINE#         241
  C:01ECH         LINE#         242
  C:01ECH         LINE#         243
BL51 BANKED LINKER/LOCATER V6.22                                                      08/31/2022  18:11:48  PAGE 78


  C:01FAH         LINE#         244
  C:01FAH         LINE#         245
  C:01FCH         LINE#         246
  C:0201H         LINE#         247
  C:0201H         LINE#         248
  C:0203H         LINE#         250
  C:0203H         LINE#         251
  C:0212H         LINE#         252
  C:0212H         LINE#         253
  C:0218H         LINE#         254
  C:021EH         LINE#         255
  C:0220H         LINE#         256
  C:0220H         LINE#         257
  C:0220H         LINE#         258
  C:0222H         LINE#         260
  C:0222H         LINE#         261
  C:0224H         LINE#         262
  C:0224H         LINE#         264
  C:0233H         LINE#         265
  C:0238H         LINE#         266
  C:023CH         LINE#         267
  C:0240H         LINE#         268
  C:0242H         LINE#         269
  C:024DH         LINE#         270
  C:024DH         LINE#         271
  C:024FH         LINE#         272
  C:0251H         LINE#         274
  C:0251H         LINE#         275
  C:0253H         LINE#         276
  C:0253H         LINE#         278
  C:0269H         LINE#         279
  C:0269H         LINE#         281
  C:027FH         LINE#         282
  C:0295H         LINE#         283
  C:0298H         LINE#         284
  C:0298H         LINE#         285
  C:02A0H         LINE#         286
  C:02A6H         LINE#         287
  C:02A6H         LINE#         289
  C:02B5H         LINE#         290
  C:02D0H         LINE#         291
  C:02E8H         LINE#         293
  C:02EEH         LINE#         294
  C:02EEH         LINE#         296
  C:0320H         LINE#         297
  C:0320H         LINE#         298
  C:033BH         LINE#         299
  C:0348H         LINE#         300
  C:034AH         LINE#         301
  C:0392H         LINE#         302
  C:0392H         LINE#         303
  C:0392H         LINE#         305
  C:0392H         LINE#         306
  C:039EH         LINE#         307
  C:039EH         LINE#         308
  C:03DCH         LINE#         309
  C:03DCH         LINE#         310
BL51 BANKED LINKER/LOCATER V6.22                                                      08/31/2022  18:11:48  PAGE 79


  C:03E3H         LINE#         311
  C:03E3H         LINE#         312
  C:03E4H         LINE#         313
  C:03E6H         LINE#         315
  C:03E6H         LINE#         316
  C:03F3H         LINE#         317
  C:03F3H         LINE#         318
  C:03F7H         LINE#         319
  C:03F7H         LINE#         320
  C:03F7H         LINE#         321
  C:03F7H         LINE#         323
  C:046DH         LINE#         324
  C:046DH         LINE#         325
  C:04CFH         LINE#         326
  C:04D2H         LINE#         327
  C:04D2H         LINE#         329
  C:04D5H         LINE#         330
  C:054FH         LINE#         331
  C:054FH         LINE#         332
  C:05B5H         LINE#         333
  C:05BBH         LINE#         334
  C:05BDH         LINE#         336
  C:05BDH         LINE#         337
  C:05BDH         LINE#         339
  C:05E7H         LINE#         340
  C:05F0H         LINE#         341
  C:061BH         LINE#         342
  C:0660H         LINE#         343
  C:06A5H         LINE#         345
  C:06DCH         LINE#         347
  C:0726H         LINE#         348
  C:0726H         LINE#         349
  C:072EH         LINE#         350
  C:072EH         LINE#         351
  C:0730H         LINE#         352
  C:0730H         LINE#         353
  C:0732H         LINE#         354
  C:0732H         LINE#         355
  C:078EH         LINE#         356
  C:078EH         LINE#         357
  C:0796H         LINE#         358
  C:0796H         LINE#         359
  C:0798H         LINE#         360
  C:0798H         LINE#         361
  C:079AH         LINE#         362
  C:079AH         LINE#         363
  C:07A0H         LINE#         364
  C:07A0H         LINE#         365
  C:07DAH         LINE#         366
  C:07FFH         LINE#         367
  C:0844H         LINE#         368
  C:0844H         LINE#         369
  C:084CH         LINE#         370
  C:084CH         LINE#         371
  C:084EH         LINE#         372
  C:084EH         LINE#         373
  C:0850H         LINE#         374
BL51 BANKED LINKER/LOCATER V6.22                                                      08/31/2022  18:11:48  PAGE 80


  C:0857H         LINE#         375
  C:085CH         LINE#         376
  C:085CH         LINE#         377
  C:085CH         LINE#         378
  C:0897H         LINE#         379
  C:08AFH         LINE#         381
  C:08E5H         LINE#         382
  C:08E5H         LINE#         383
  C:08FCH         LINE#         384
  C:090EH         LINE#         385
  C:0913H         LINE#         386
  C:0959H         LINE#         387
  C:0986H         LINE#         388
  C:0986H         LINE#         389
  C:099DH         LINE#         390
  C:09AFH         LINE#         392
  C:09BFH         LINE#         393
  C:09BFH         LINE#         396
  C:09C9H         LINE#         397
  C:09C9H         LINE#         399
  C:09E3H         LINE#         400
  C:09E3H         LINE#         401
  C:0A6DH         LINE#         402
  C:0A6DH         LINE#         403
  C:0A6DH         LINE#         404
  C:0A6FH         LINE#         406
  C:0A6FH         LINE#         407
  C:0A74H         LINE#         408
  C:0A74H         LINE#         409
  C:0A77H         LINE#         411
  C:0A77H         LINE#         412
  C:0A77H         LINE#         413
  C:0A77H         LINE#         414
  C:0A79H         LINE#         417
  C:0A79H         LINE#         418
  C:0A7CH         LINE#         419
  C:0A7CH         LINE#         420
  C:0A7FH         LINE#         422
  C:0A7FH         LINE#         423
  C:0A84H         LINE#         424
  C:0A84H         LINE#         425
  C:0A87H         LINE#         427
  C:0A87H         LINE#         428
  C:0A8CH         LINE#         429
  C:0AA3H         LINE#         431
  C:0ACCH         LINE#         432
  C:0ACCH         LINE#         433
  C:0ADEH         LINE#         434
  C:0ADEH         LINE#         436
  C:0AFAH         LINE#         437
  C:0AFAH         LINE#         438
  C:0B02H         LINE#         439
  C:0B02H         LINE#         440
  C:0B1BH         LINE#         441
  C:0B1BH         LINE#         442
  C:0B2AH         LINE#         443
  C:0B2AH         LINE#         444
BL51 BANKED LINKER/LOCATER V6.22                                                      08/31/2022  18:11:48  PAGE 81


  C:0B74H         LINE#         445
  C:0B74H         LINE#         446
  C:0B90H         LINE#         447
  C:0B90H         LINE#         448
  C:0B9BH         LINE#         449
  C:0B9BH         LINE#         451
  C:0C07H         LINE#         452
  C:0C07H         LINE#         453
  C:0C07H         LINE#         454
  C:0C09H         LINE#         456
  C:0C09H         LINE#         457
  C:0C1FH         LINE#         458
  C:0C1FH         LINE#         459
  C:0C22H         LINE#         461
  C:0C22H         LINE#         462
  C:0C2FH         LINE#         463
  C:0C2FH         LINE#         465
  C:0C2FH         LINE#         466
  C:0C32H         LINE#         468
  C:0C32H         LINE#         469
  C:0C49H         LINE#         470
  C:0C8EH         LINE#         471
  C:0C93H         LINE#         472
  C:0CA5H         LINE#         474
  C:0CDAH         LINE#         475
  C:0CDAH         LINE#         476
  C:0CDFH         LINE#         477
  C:0D66H         LINE#         478
  C:0D66H         LINE#         479
  C:0D7DH         LINE#         480
  C:0D80H         LINE#         482
  C:0D80H         LINE#         483
  C:0D97H         LINE#         484
  C:0DA2H         LINE#         485
  C:0DA2H         LINE#         486
  C:0DF8H         LINE#         487
  C:0DF8H         LINE#         488
  C:0DF8H         LINE#         489
  C:0DFBH         LINE#         491
  C:0DFBH         LINE#         492
  C:0E12H         LINE#         493
  C:0E23H         LINE#         495
  C:0E6DH         LINE#         496
  C:0E6DH         LINE#         498
  C:0E7FH         LINE#         499
  C:0E8CH         LINE#         500
  C:0E8CH         LINE#         501
  C:0E94H         LINE#         502
  C:0E94H         LINE#         503
  C:0EF3H         LINE#         504
  C:0EF3H         LINE#         505
  C:0EF3H         LINE#         506
  C:0EF5H         LINE#         508
  C:0EF5H         LINE#         509
  C:0EFBH         LINE#         510
  C:0EFBH         LINE#         511
  C:0EFDH         LINE#         513
BL51 BANKED LINKER/LOCATER V6.22                                                      08/31/2022  18:11:48  PAGE 82


  C:0EFDH         LINE#         514
  C:0F02H         LINE#         515
  C:0F02H         LINE#         516
  C:0F1DH         LINE#         517
  C:0F1DH         LINE#         518
  C:0F25H         LINE#         519
  C:0F25H         LINE#         520
  C:0F3EH         LINE#         521
  C:0F3EH         LINE#         523
  C:0F4DH         LINE#         524
  C:0F4DH         LINE#         526
  C:0F4DH         LINE#         527
  C:0F4DH         LINE#         528
  C:0F59H         LINE#         529
  C:0F59H         LINE#         530
  C:0F9AH         LINE#         531
  C:0F9AH         LINE#         532
  C:0FB1H         LINE#         533
  C:0FCCH         LINE#         534
  C:0FCCH         LINE#         535
  C:1006H         LINE#         536
  C:1006H         LINE#         537
  C:1006H         LINE#         538
  C:1008H         LINE#         540
  C:1008H         LINE#         541
  C:101EH         LINE#         542
  C:101EH         LINE#         543
  C:101EH         LINE#         544
  C:102FH         LINE#         545
  C:102FH         LINE#         546
  C:1039H         LINE#         547
  C:1056H         LINE#         548
  C:106EH         LINE#         549
  C:1083H         LINE#         550
  C:1085H         LINE#         552
  C:1085H         LINE#         553
  C:108FH         LINE#         554
  C:10A9H         LINE#         555
  C:10C1H         LINE#         556
  C:10DBH         LINE#         557
  C:10DBH         LINE#         558
  C:10E4H         LINE#         559
  C:10FAH         LINE#         560
  C:10FAH         LINE#         562
  C:1117H         LINE#         563
  C:1117H         LINE#         564
  C:1151H         LINE#         565
  C:1168H         LINE#         566
  C:1168H         LINE#         567
  C:1183H         LINE#         568
  C:1186H         LINE#         569
  C:1186H         LINE#         570
  C:118BH         LINE#         571
  C:118BH         LINE#         572
  C:1199H         LINE#         573
  C:1199H         LINE#         574
  C:11DDH         LINE#         575
BL51 BANKED LINKER/LOCATER V6.22                                                      08/31/2022  18:11:48  PAGE 83


  C:11F2H         LINE#         576
  C:11F4H         LINE#         577
  C:11FAH         LINE#         578
  C:11FAH         LINE#         579
  C:1241H         LINE#         580
  C:1241H         LINE#         581
  C:124AH         LINE#         583
  C:1254H         LINE#         584
  C:1254H         LINE#         585
  C:126AH         LINE#         586
  C:126AH         LINE#         588
  C:1274H         LINE#         589
  C:1274H         LINE#         590
  C:1293H         LINE#         591
  C:1293H         LINE#         592
  C:12FCH         LINE#         593
  C:12FCH         LINE#         594
  C:1333H         LINE#         595
  C:1333H         LINE#         596
  C:1335H         LINE#         603
  C:1335H         LINE#         604
  C:1364H         LINE#         605
  C:136AH         LINE#         606
  C:136AH         LINE#         607
  C:136DH         LINE#         609
  C:136DH         LINE#         610
  C:13D0H         LINE#         611
  C:13D0H         LINE#         612
  C:13D6H         LINE#         613
  C:1406H         LINE#         614
  C:1408H         LINE#         616
  C:1408H         LINE#         617
  C:1442H         LINE#         618
  C:1442H         LINE#         619
  C:1442H         LINE#         620
  C:144BH         LINE#         621
  C:144BH         LINE#         623
  C:144BH         LINE#         624
  C:1453H         LINE#         625
  C:1453H         LINE#         626
  C:146FH         LINE#         627
  C:146FH         LINE#         628
  C:146FH         LINE#         630
  C:148CH         LINE#         631
  C:148CH         LINE#         632
  C:14A2H         LINE#         633
  C:14A2H         LINE#         634
  C:14DCH         LINE#         635
  C:14EEH         LINE#         636
  C:1503H         LINE#         637
  C:1513H         LINE#         638
  C:1516H         LINE#         639
  C:1516H         LINE#         640
  C:1528H         LINE#         641
  C:152FH         LINE#         642
  C:1546H         LINE#         643
  C:1548H         LINE#         645
BL51 BANKED LINKER/LOCATER V6.22                                                      08/31/2022  18:11:48  PAGE 84


  C:1548H         LINE#         646
  C:155AH         LINE#         647
  C:1561H         LINE#         648
  C:1578H         LINE#         649
  C:1578H         LINE#         650
  C:1581H         LINE#         651
  C:158BH         LINE#         652
  C:158BH         LINE#         653
  C:159BH         LINE#         654
  C:159BH         LINE#         655
  C:15B0H         LINE#         656
  C:15B0H         LINE#         657
  C:15B3H         LINE#         658
  C:15B3H         LINE#         659
  C:15BAH         LINE#         660
  C:15F4H         LINE#         661
  C:15F4H         LINE#         662
  C:1606H         LINE#         663
  C:161BH         LINE#         664
  C:162BH         LINE#         665
  C:163BH         LINE#         666
  C:163BH         LINE#         667
  C:1645H         LINE#         668
  C:1657H         LINE#         669
  C:1659H         LINE#         671
  C:1659H         LINE#         672
  C:1663H         LINE#         673
  C:1675H         LINE#         674
  C:1675H         LINE#         675
  C:167EH         LINE#         676
  C:1688H         LINE#         677
  C:1688H         LINE#         679
  C:1692H         LINE#         680
  C:1692H         LINE#         681
  C:16A8H         LINE#         682
  C:16A8H         LINE#         683
  C:16ABH         LINE#         684
  C:16D8H         LINE#         685
  C:16DEH         LINE#         686
  C:1710H         LINE#         687
  C:1716H         LINE#         688
  C:171DH         LINE#         689
  C:171DH         LINE#         690
  C:1733H         LINE#         691
  C:1733H         LINE#         692
  C:1738H         LINE#         693
  C:1738H         LINE#         694
  C:175FH         LINE#         695
  C:175FH         LINE#         696
  C:175FH         LINE#         697
  C:175FH         LINE#         698
  C:175FH         LINE#         699
  C:175FH         LINE#         700
  C:1761H         LINE#         701
  C:1769H         LINE#         702
  C:1769H         LINE#         703
  C:178DH         LINE#         704
BL51 BANKED LINKER/LOCATER V6.22                                                      08/31/2022  18:11:48  PAGE 85


  C:178DH         LINE#         705
  C:17B3H         LINE#         706
  C:17D9H         LINE#         707
  C:17DAH         LINE#         708
  C:17DAH         LINE#         709
  C:17DCH         LINE#         711
  C:17DCH         LINE#         712
  C:17EFH         LINE#         713
  C:17EFH         LINE#         714
  C:17F8H         LINE#         715
  C:17F8H         LINE#         719
  C:1803H         LINE#         720
  C:1803H         LINE#         721
  C:1809H         LINE#         722
  C:1809H         LINE#         723
  C:180CH         LINE#         724
  C:180CH         LINE#         725
  C:1814H         LINE#         726
  C:1814H         LINE#         727
  C:1816H         LINE#         728
  C:1816H         LINE#         729
  C:1818H         LINE#         730
  C:181BH         LINE#         732
  C:181BH         LINE#         733
  C:1830H         LINE#         734
  C:1830H         LINE#         735
  C:186AH         LINE#         736
  C:187CH         LINE#         737
  C:1891H         LINE#         738
  C:18A1H         LINE#         739
  C:18B1H         LINE#         740
  C:18B1H         LINE#         741
  C:18BBH         LINE#         742
  C:18CDH         LINE#         743
  C:18CFH         LINE#         745
  C:18CFH         LINE#         746
  C:18D9H         LINE#         747
  C:18EBH         LINE#         748
  C:18EBH         LINE#         749
  C:18F4H         LINE#         750
  C:18FEH         LINE#         751
  C:18FEH         LINE#         752
  C:18FEH         LINE#         753
  C:18FEH         LINE#         755
  C:1904H         LINE#         757
  C:1908H         LINE#         758
  C:1908H         LINE#         759
  C:190AH         LINE#         760
  C:1912H         LINE#         761
  C:1912H         LINE#         762
  C:1914H         LINE#         763
  C:1914H         LINE#         764
  C:1914H         LINE#         766
  C:191CH         LINE#         767
  C:191CH         LINE#         768
  C:1920H         LINE#         769
  C:1920H         LINE#         770
BL51 BANKED LINKER/LOCATER V6.22                                                      08/31/2022  18:11:48  PAGE 86


  C:192BH         LINE#         771
  C:192BH         LINE#         772
  C:192CH         LINE#         773
  C:192CH         LINE#         774
  C:192FH         LINE#         775
  C:192FH         LINE#         776
  C:1931H         LINE#         777
  C:1931H         LINE#         778
  C:1939H         LINE#         779
  C:1939H         LINE#         780
  C:193DH         LINE#         781
  C:1940H         LINE#         782
  C:1940H         LINE#         783
  -------         ENDPROC       KEY_JUDGE
  -------         PROC          TOUCHKEYINIT
  -------         DO            
  D:0003H         SYMBOL        i
  -------         ENDDO         
  C:3AF3H         LINE#         787
  C:3AF3H         LINE#         788
  C:3AF3H         LINE#         791
  C:3AF6H         LINE#         792
  C:3AF9H         LINE#         793
  C:3AFBH         LINE#         795
  C:3AFFH         LINE#         797
  C:3B0DH         LINE#         798
  C:3B0DH         LINE#         799
  C:3B1DH         LINE#         800
  C:3B29H         LINE#         801
  C:3B35H         LINE#         802
  C:3B41H         LINE#         803
  C:3B4BH         LINE#         804
  C:3B57H         LINE#         805
  C:3B59H         LINE#         808
  C:3B69H         LINE#         809
  C:3B75H         LINE#         810
  C:3B81H         LINE#         811
  C:3B8DH         LINE#         812
  C:3B97H         LINE#         813
  C:3BA3H         LINE#         814
  C:3BA5H         LINE#         817
  C:3BB1H         LINE#         819
  C:3BBEH         LINE#         820
  C:3BCBH         LINE#         822
  C:3BDBH         LINE#         823
  C:3BDFH         LINE#         824
  -------         ENDPROC       TOUCHKEYINIT
  -------         ENDMOD        SINO_TOUCHKEY

  -------         MODULE        ?C?COPY
  C:1A11H         PUBLIC        ?C?COPY
  -------         ENDMOD        ?C?COPY

  -------         MODULE        ?C?CLDPTR
  C:1A37H         PUBLIC        ?C?CLDPTR
  -------         ENDMOD        ?C?CLDPTR

BL51 BANKED LINKER/LOCATER V6.22                                                      08/31/2022  18:11:48  PAGE 87


  -------         MODULE        ?C?CLDIPTR
  C:1A50H         PUBLIC        ?C?CLDIPTR
  -------         ENDMOD        ?C?CLDIPTR

  -------         MODULE        ?C?CLDOPTR
  C:1A74H         PUBLIC        ?C?CLDOPTR
  -------         ENDMOD        ?C?CLDOPTR

  -------         MODULE        ?C?CILDPTR
  C:1AA1H         PUBLIC        ?C?CILDPTR
  -------         ENDMOD        ?C?CILDPTR

  -------         MODULE        ?C?CILDOPTR
  C:1AC3H         PUBLIC        ?C?CILDOPTR
  -------         ENDMOD        ?C?CILDOPTR

  -------         MODULE        ?C?CSTPTR
  C:1AF6H         PUBLIC        ?C?CSTPTR
  -------         ENDMOD        ?C?CSTPTR

  -------         MODULE        ?C?CSTOPTR
  C:1B08H         PUBLIC        ?C?CSTOPTR
  -------         ENDMOD        ?C?CSTOPTR

  -------         MODULE        ?C?IMUL
  C:1B2AH         PUBLIC        ?C?IMUL
  -------         ENDMOD        ?C?IMUL

  -------         MODULE        ?C?UIDIV
  C:1B3CH         PUBLIC        ?C?UIDIV
  -------         ENDMOD        ?C?UIDIV

  -------         MODULE        ?C?IILDX
  C:1B91H         PUBLIC        ?C?IILDX
  -------         ENDMOD        ?C?IILDX

  -------         MODULE        ?C?ILDIX
  C:1BA7H         PUBLIC        ?C?ILDIX
  -------         ENDMOD        ?C?ILDIX

  -------         MODULE        ?C?ILDPTR
  C:1BBDH         PUBLIC        ?C?ILDPTR
  -------         ENDMOD        ?C?ILDPTR

  -------         MODULE        ?C?ILDOPTR
  C:1BE8H         PUBLIC        ?C?ILDOPTR
  -------         ENDMOD        ?C?ILDOPTR

  -------         MODULE        ?C?IILDPTR
  C:1C20H         PUBLIC        ?C?IILDPTR
  -------         ENDMOD        ?C?IILDPTR

  -------         MODULE        ?C?IILDOPTR
  C:1C58H         PUBLIC        ?C?IILDOPTR
  -------         ENDMOD        ?C?IILDOPTR

  -------         MODULE        ?C?ISTPTR
BL51 BANKED LINKER/LOCATER V6.22                                                      08/31/2022  18:11:48  PAGE 88


  C:1CA5H         PUBLIC        ?C?ISTPTR
  -------         ENDMOD        ?C?ISTPTR

  -------         MODULE        ?C?ISTOPTR
  C:1CC4H         PUBLIC        ?C?ISTOPTR
  -------         ENDMOD        ?C?ISTOPTR

  -------         MODULE        ?C?ULDIV
  C:1D2DH         PUBLIC        ?C?ULDIV
  -------         ENDMOD        ?C?ULDIV

  -------         MODULE        ?C?LNOT
  C:1DBFH         PUBLIC        ?C?LNOT
  -------         ENDMOD        ?C?LNOT

  -------         MODULE        ?C?ULCMP
  C:1DCCH         PUBLIC        ?C?ULCMP
  -------         ENDMOD        ?C?ULCMP

  -------         MODULE        ?C?ULSHR
  C:1DDDH         PUBLIC        ?C?ULSHR
  -------         ENDMOD        ?C?ULSHR

  -------         MODULE        ?C?LSHL
  C:1DF0H         PUBLIC        ?C?LSHL
  -------         ENDMOD        ?C?LSHL

  -------         MODULE        ?C?LSTXDATA
  C:1E03H         PUBLIC        ?C?LSTXDATA
  -------         ENDMOD        ?C?LSTXDATA

  -------         MODULE        ?C?LSTKXDATA
  C:1E0FH         PUBLIC        ?C?LSTKXDATA
  -------         ENDMOD        ?C?LSTKXDATA

  -------         MODULE        ?C?OFFXADD
  C:1E40H         PUBLIC        ?C?OFFXADD
  -------         ENDMOD        ?C?OFFXADD

  -------         MODULE        ?C?ICASE
  C:1E4CH         PUBLIC        ?C?ICASE
  -------         ENDMOD        ?C?ICASE

  -------         MODULE        ABS
  C:5856H         PUBLIC        _ABS
  -------         ENDMOD        ABS

Program Size: data=36.1 xdata=801 code=22739
LINK/LOCATE RUN COMPLETE.  0 WARNING(S),  0 ERROR(S)
